
smart_v1.elf:     file format elf32-msp430


Disassembly of section .key:

0000fee0 <smart_key>:
    fee0:	2a 00 00 00 	mova	&0,	r10	;
    fee4:	62 00 00 00 	mova	r0,	&131072	; 0x20000
    fee8:	63 00 00 00 	mova	r0,	&196608	; 0x30000
    feec:	64 00 00 00 	mova	r0,	&262144	; 0x40000
    fef0:	65 00 00 00 	mova	r0,	&327680	; 0x50000
    fef4:	66 00 00 00 	mova	r0,	&393216	; 0x60000
    fef8:	67 00 00 00 	mova	r0,	&458752	; 0x70000
    fefc:	68 00 00 00 	mova	r0,	&524288	; 0x80000
    ff00:	2a 00 00 00 	mova	&0,	r10	;
    ff04:	62 00 00 00 	mova	r0,	&131072	; 0x20000
    ff08:	63 00 00 00 	mova	r0,	&196608	; 0x30000
    ff0c:	64 00 00 00 	mova	r0,	&262144	; 0x40000
    ff10:	65 00 00 00 	mova	r0,	&327680	; 0x50000
    ff14:	66 00 00 00 	mova	r0,	&393216	; 0x60000
    ff18:	67 00 00 00 	mova	r0,	&458752	; 0x70000
    ff1c:	68 00 00 00 	mova	r0,	&524288	; 0x80000
    ff20:	2a 00 00 00 	mova	&0,	r10	;
    ff24:	62 00 00 00 	mova	r0,	&131072	; 0x20000
    ff28:	63 00 00 00 	mova	r0,	&196608	; 0x30000
    ff2c:	64 00 00 00 	mova	r0,	&262144	; 0x40000
    ff30:	65 00 00 00 	mova	r0,	&327680	; 0x50000
    ff34:	66 00 00 00 	mova	r0,	&393216	; 0x60000
    ff38:	67 00 00 00 	mova	r0,	&458752	; 0x70000
    ff3c:	68 00 00 00 	mova	r0,	&524288	; 0x80000
    ff40:	2a 00 00 00 	mova	&0,	r10	;
    ff44:	62 00 00 00 	mova	r0,	&131072	; 0x20000
    ff48:	63 00 00 00 	mova	r0,	&196608	; 0x30000
    ff4c:	64 00 00 00 	mova	r0,	&262144	; 0x40000
    ff50:	65 00 00 00 	mova	r0,	&327680	; 0x50000
    ff54:	66 00 00 00 	mova	r0,	&393216	; 0x60000
    ff58:	67 00 00 00 	mova	r0,	&458752	; 0x70000
    ff5c:	68 00 00 00 	mova	r0,	&524288	; 0x80000
    ff60:	2a 00 00 00 	mova	&0,	r10	;
    ff64:	62 00 00 00 	mova	r0,	&131072	; 0x20000
    ff68:	63 00 00 00 	mova	r0,	&196608	; 0x30000
    ff6c:	64 00 00 00 	mova	r0,	&262144	; 0x40000
    ff70:	65 00 00 00 	mova	r0,	&327680	; 0x50000
    ff74:	66 00 00 00 	mova	r0,	&393216	; 0x60000
    ff78:	67 00 00 00 	mova	r0,	&458752	; 0x70000
    ff7c:	68 00 00 00 	mova	r0,	&524288	; 0x80000
    ff80:	2a 00 00 00 	mova	&0,	r10	;
    ff84:	62 00 00 00 	mova	r0,	&131072	; 0x20000
    ff88:	63 00 00 00 	mova	r0,	&196608	; 0x30000
    ff8c:	64 00 00 00 	mova	r0,	&262144	; 0x40000
    ff90:	65 00 00 00 	mova	r0,	&327680	; 0x50000
    ff94:	66 00 00 00 	mova	r0,	&393216	; 0x60000
    ff98:	67 00 00 00 	mova	r0,	&458752	; 0x70000
    ff9c:	68 00 00 00 	mova	r0,	&524288	; 0x80000
    ffa0:	2a 00 00 00 	mova	&0,	r10	;
    ffa4:	62 00 00 00 	mova	r0,	&131072	; 0x20000
    ffa8:	63 00 00 00 	mova	r0,	&196608	; 0x30000
    ffac:	64 00 00 00 	mova	r0,	&262144	; 0x40000
    ffb0:	65 00 00 00 	mova	r0,	&327680	; 0x50000
    ffb4:	66 00 00 00 	mova	r0,	&393216	; 0x60000
    ffb8:	67 00 00 00 	mova	r0,	&458752	; 0x70000
    ffbc:	68 00 00 00 	mova	r0,	&524288	; 0x80000
    ffc0:	2a 00 00 00 	mova	&0,	r10	;
    ffc4:	62 00 00 00 	mova	r0,	&131072	; 0x20000
    ffc8:	63 00 00 00 	mova	r0,	&196608	; 0x30000
    ffcc:	64 00 00 00 	mova	r0,	&262144	; 0x40000
    ffd0:	65 00 00 00 	mova	r0,	&327680	; 0x50000
    ffd4:	66 00 00 00 	mova	r0,	&393216	; 0x60000
    ffd8:	67 00 00 00 	mova	r0,	&458752	; 0x70000
    ffdc:	68 00 00 00 	mova	r0,	&524288	; 0x80000

Disassembly of section .keyfunction:

0000fae0 <smart_hash>:
    42, 0x62, 0x63, 0x64, 0x65, 0x66, 0x67, 0x68, 
    42, 0x62, 0x63, 0x64, 0x65, 0x66, 0x67, 0x68, 
    42, 0x62, 0x63, 0x64, 0x65, 0x66, 0x67, 0x68
};

void SMART smart_hash (SmartInput input) {
    fae0:	31 80 16 00 	sub	#22,	r1	;#0x0016

0000fae4 <.LCFI0>:
    fae4:	81 4c 00 00 	mov	r12,	0(r1)	;

0000fae8 <.Loc.15.1>:
    disable_interrupts();
    fae8:	03 43       	nop			
    faea:	32 c2       	dint			
    faec:	03 43       	nop			

0000faee <.Loc.17.1>:

    unsigned char *str = input->str;
    faee:	2c 41       	mov	@r1,	r12	;
    faf0:	a1 4c 0c 00 	mov	@r12,	12(r1)	; 0x000c

0000faf4 <.Loc.18.1>:
    unsigned int length = input->length;
    faf4:	2c 41       	mov	@r1,	r12	;
    faf6:	91 4c 02 00 	mov	2(r12),	10(r1)	; 0x000a
    fafa:	0a 00 

0000fafc <.Loc.20.1>:

    unsigned long size = (length + 64 * 4 * 2) * 8;
    fafc:	1c 41 0a 00 	mov	10(r1),	r12	;0x0000a
    fb00:	3c 50 00 02 	add	#512,	r12	;#0x0200
    fb04:	0c 5c       	rla	r12		;
    fb06:	0c 5c       	rla	r12		;
    fb08:	0c 5c       	rla	r12		;
    fb0a:	81 4c 06 00 	mov	r12,	6(r1)	;
    fb0e:	81 43 08 00 	mov	#0,	8(r1)	;r3 As==00

0000fb12 <.Loc.21.1>:
    unsigned int i = 0;
    fb12:	81 43 14 00 	mov	#0,	20(r1)	;r3 As==00, 0x0014

0000fb16 <.Loc.22.1>:
    char init = 1;
    fb16:	d1 43 13 00 	mov.b	#1,	19(r1)	;r3 As==01, 0x0013

0000fb1a <.Loc.27.1>:

    unsigned long in;

    // copy and hash key
    for (i = 0; i < 64; i++) {
    fb1a:	81 43 14 00 	mov	#0,	20(r1)	;r3 As==00, 0x0014
    fb1e:	30 40 6c fb 	br	#0xfb6c		;

0000fb22 <.L4>:
        (&SHA_INPUT)[i%16] = smart_key[i];
    fb22:	1c 41 14 00 	mov	20(r1),	r12	;0x00014
    fb26:	7c f0 0f 00 	and.b	#15,	r12	;#0x000f
    fb2a:	0c 5c       	rla	r12		;
    fb2c:	0c 5c       	rla	r12		;
    fb2e:	0e 4c       	mov	r12,	r14	;
    fb30:	3e 50 12 00 	add	#18,	r14	;#0x0012
    fb34:	1c 41 14 00 	mov	20(r1),	r12	;0x00014
    fb38:	0c 5c       	rla	r12		;
    fb3a:	0c 5c       	rla	r12		;
    fb3c:	3c 50 e0 fe 	add	#65248,	r12	;#0xfee0
    fb40:	1d 4c 02 00 	mov	2(r12),	r13	;
    fb44:	2c 4c       	mov	@r12,	r12	;
    fb46:	8e 4c 00 00 	mov	r12,	0(r14)	;
    fb4a:	8e 4d 02 00 	mov	r13,	2(r14)	;

0000fb4e <.Loc.29.1>:
        if ((i+1)%16 == 0)
    fb4e:	1c 41 14 00 	mov	20(r1),	r12	;0x00014
    fb52:	1c 53       	inc	r12		;
    fb54:	7c f0 0f 00 	and.b	#15,	r12	;#0x000f
    fb58:	0c 93       	cmp	#0,	r12	;r3 As==00
    fb5a:	06 20       	jnz	$+14     	;abs 0xfb68

0000fb5c <.Loc.30.1>:
            init = sha256_flush(init);
    fb5c:	5c 41 13 00 	mov.b	19(r1),	r12	;0x00013
    fb60:	b0 12 56 fd 	call	#64854		;#0xfd56
    fb64:	c1 4c 13 00 	mov.b	r12,	19(r1)	; 0x0013

0000fb68 <.L3>:
    char init = 1;

    unsigned long in;

    // copy and hash key
    for (i = 0; i < 64; i++) {
    fb68:	91 53 14 00 	inc	20(r1)		;

0000fb6c <.L2>:
    fb6c:	7c 40 3f 00 	mov.b	#63,	r12	;#0x003f
    fb70:	1c 91 14 00 	cmp	20(r1),	r12	;0x00014
    fb74:	d6 2f       	jc	$-82     	;abs 0xfb22

0000fb76 <.Loc.34.1>:
        if ((i+1)%16 == 0)
            init = sha256_flush(init);
    }

    // copy and hash nounce
    for (i = 0; i < 64; i++) {
    fb76:	81 43 14 00 	mov	#0,	20(r1)	;r3 As==00, 0x0014
    fb7a:	30 40 cc fb 	br	#0xfbcc		;

0000fb7e <.L7>:
        (&SHA_INPUT)[i%16] = (input->n)[i];
    fb7e:	2c 41       	mov	@r1,	r12	;
    fb80:	1d 4c 06 00 	mov	6(r12),	r13	;
    fb84:	1c 41 14 00 	mov	20(r1),	r12	;0x00014
    fb88:	0c 5c       	rla	r12		;
    fb8a:	0c 5c       	rla	r12		;
    fb8c:	0d 5c       	add	r12,	r13	;
    fb8e:	1c 41 14 00 	mov	20(r1),	r12	;0x00014
    fb92:	7c f0 0f 00 	and.b	#15,	r12	;#0x000f
    fb96:	0c 5c       	rla	r12		;
    fb98:	0c 5c       	rla	r12		;
    fb9a:	0e 4c       	mov	r12,	r14	;
    fb9c:	3e 50 12 00 	add	#18,	r14	;#0x0012
    fba0:	2c 4d       	mov	@r13,	r12	;
    fba2:	1d 4d 02 00 	mov	2(r13),	r13	;
    fba6:	8e 4c 00 00 	mov	r12,	0(r14)	;
    fbaa:	8e 4d 02 00 	mov	r13,	2(r14)	;

0000fbae <.Loc.36.1>:
        if ((i+1)%16 == 0)
    fbae:	1c 41 14 00 	mov	20(r1),	r12	;0x00014
    fbb2:	1c 53       	inc	r12		;
    fbb4:	7c f0 0f 00 	and.b	#15,	r12	;#0x000f
    fbb8:	0c 93       	cmp	#0,	r12	;r3 As==00
    fbba:	06 20       	jnz	$+14     	;abs 0xfbc8

0000fbbc <.Loc.37.1>:
            init = sha256_flush(init);
    fbbc:	5c 41 13 00 	mov.b	19(r1),	r12	;0x00013
    fbc0:	b0 12 56 fd 	call	#64854		;#0xfd56
    fbc4:	c1 4c 13 00 	mov.b	r12,	19(r1)	; 0x0013

0000fbc8 <.L6>:
        if ((i+1)%16 == 0)
            init = sha256_flush(init);
    }

    // copy and hash nounce
    for (i = 0; i < 64; i++) {
    fbc8:	91 53 14 00 	inc	20(r1)		;

0000fbcc <.L5>:
    fbcc:	7c 40 3f 00 	mov.b	#63,	r12	;#0x003f
    fbd0:	1c 91 14 00 	cmp	20(r1),	r12	;0x00014
    fbd4:	d4 2f       	jc	$-86     	;abs 0xfb7e

0000fbd6 <.Loc.41.1>:
        if ((i+1)%16 == 0)
            init = sha256_flush(init);
    }

    // copy and hash data
    i = 0;
    fbd6:	81 43 14 00 	mov	#0,	20(r1)	;r3 As==00, 0x0014

0000fbda <.Loc.42.1>:
    while (i <= length/4) {
    fbda:	30 40 aa fc 	br	#0xfcaa		;

0000fbde <.L14>:
        in = 0;
    fbde:	81 43 02 00 	mov	#0,	2(r1)	;r3 As==00
    fbe2:	81 43 04 00 	mov	#0,	4(r1)	;r3 As==00

0000fbe6 <.LBB2>:
        for (unsigned int j = 0; j < 4; j++) {
    fbe6:	81 43 10 00 	mov	#0,	16(r1)	;r3 As==00, 0x0010
    fbea:	30 40 58 fc 	br	#0xfc58		;

0000fbee <.L13>:
            if (i*4+j < length) {
    fbee:	1c 41 14 00 	mov	20(r1),	r12	;0x00014
    fbf2:	0c 5c       	rla	r12		;
    fbf4:	0c 5c       	rla	r12		;
    fbf6:	1c 51 10 00 	add	16(r1),	r12	;0x00010
    fbfa:	1c 91 0a 00 	cmp	10(r1),	r12	;0x0000a
    fbfe:	15 2c       	jc	$+44     	;abs 0xfc2a

0000fc00 <.Loc.46.1>:
                ((unsigned char *) &in)[3-j] = str[i*4+j];
    fc00:	1c 41 14 00 	mov	20(r1),	r12	;0x00014
    fc04:	0c 5c       	rla	r12		;
    fc06:	0c 5c       	rla	r12		;
    fc08:	1c 51 10 00 	add	16(r1),	r12	;0x00010
    fc0c:	1d 41 0c 00 	mov	12(r1),	r13	;0x0000c
    fc10:	0d 5c       	add	r12,	r13	;
    fc12:	7c 40 03 00 	mov.b	#3,	r12	;
    fc16:	1c 81 10 00 	sub	16(r1),	r12	;0x00010
    fc1a:	0e 41       	mov	r1,	r14	;
    fc1c:	2e 53       	incd	r14		;
    fc1e:	0c 5e       	add	r14,	r12	;
    fc20:	6d 4d       	mov.b	@r13,	r13	;
    fc22:	cc 4d 00 00 	mov.b	r13,	0(r12)	;
    fc26:	30 40 54 fc 	br	#0xfc54		;

0000fc2a <.L10>:
            } else if (i*4+j == length) {
    fc2a:	1c 41 14 00 	mov	20(r1),	r12	;0x00014
    fc2e:	0c 5c       	rla	r12		;
    fc30:	0c 5c       	rla	r12		;
    fc32:	1c 51 10 00 	add	16(r1),	r12	;0x00010
    fc36:	81 9c 0a 00 	cmp	r12,	10(r1)	; 0x000a
    fc3a:	0c 20       	jnz	$+26     	;abs 0xfc54

0000fc3c <.Loc.48.1>:
                ((unsigned char *) &in)[3-j] = 0x80;
    fc3c:	7c 40 03 00 	mov.b	#3,	r12	;
    fc40:	1c 81 10 00 	sub	16(r1),	r12	;0x00010
    fc44:	0d 41       	mov	r1,	r13	;
    fc46:	2d 53       	incd	r13		;
    fc48:	0c 5d       	add	r13,	r12	;
    fc4a:	fc 40 80 ff 	mov.b	#65408,	0(r12)	;#0xff80
    fc4e:	00 00 

0000fc50 <.Loc.49.1>:
                break;
    fc50:	30 40 62 fc 	br	#0xfc62		;

0000fc54 <.L11>:

    // copy and hash data
    i = 0;
    while (i <= length/4) {
        in = 0;
        for (unsigned int j = 0; j < 4; j++) {
    fc54:	91 53 10 00 	inc	16(r1)		;

0000fc58 <.L9>:
    fc58:	7c 40 03 00 	mov.b	#3,	r12	;
    fc5c:	1c 91 10 00 	cmp	16(r1),	r12	;0x00010
    fc60:	c6 2f       	jc	$-114    	;abs 0xfbee

0000fc62 <.L12>:
                ((unsigned char *) &in)[3-j] = 0x80;
                break;
            }
        }

        (&SHA_INPUT)[15 - i%16] = in;
    fc62:	1c 41 14 00 	mov	20(r1),	r12	;0x00014
    fc66:	7c f0 0f 00 	and.b	#15,	r12	;#0x000f
    fc6a:	0c 5c       	rla	r12		;
    fc6c:	0c 5c       	rla	r12		;
    fc6e:	0d 43       	clr	r13		;
    fc70:	0d 8c       	sub	r12,	r13	;
    fc72:	0c 4d       	mov	r13,	r12	;
    fc74:	3c 50 3c 00 	add	#60,	r12	;#0x003c
    fc78:	0e 4c       	mov	r12,	r14	;
    fc7a:	3e 50 12 00 	add	#18,	r14	;#0x0012
    fc7e:	1c 41 02 00 	mov	2(r1),	r12	;
    fc82:	1d 41 04 00 	mov	4(r1),	r13	;
    fc86:	8e 4c 00 00 	mov	r12,	0(r14)	;
    fc8a:	8e 4d 02 00 	mov	r13,	2(r14)	;

0000fc8e <.Loc.54.1>:
        i++;
    fc8e:	91 53 14 00 	inc	20(r1)		;

0000fc92 <.Loc.56.1>:

        if (i%16 == 0) init = sha256_flush(init);
    fc92:	1c 41 14 00 	mov	20(r1),	r12	;0x00014
    fc96:	7c f0 0f 00 	and.b	#15,	r12	;#0x000f
    fc9a:	0c 93       	cmp	#0,	r12	;r3 As==00
    fc9c:	06 20       	jnz	$+14     	;abs 0xfcaa

0000fc9e <.Loc.56.1>:
    fc9e:	5c 41 13 00 	mov.b	19(r1),	r12	;0x00013
    fca2:	b0 12 56 fd 	call	#64854		;#0xfd56
    fca6:	c1 4c 13 00 	mov.b	r12,	19(r1)	; 0x0013

0000fcaa <.L8>:
            init = sha256_flush(init);
    }

    // copy and hash data
    i = 0;
    while (i <= length/4) {
    fcaa:	1c 41 0a 00 	mov	10(r1),	r12	;0x0000a
    fcae:	b0 12 5a e8 	call	#59482		;#0xe85a
    fcb2:	1c 91 14 00 	cmp	20(r1),	r12	;0x00014
    fcb6:	93 2f       	jc	$-216    	;abs 0xfbde

0000fcb8 <.LBB3>:

        if (i%16 == 0) init = sha256_flush(init);
    }

    // set zeros
    for (unsigned int j = i%16; j < 15; j++) {
    fcb8:	1c 41 14 00 	mov	20(r1),	r12	;0x00014
    fcbc:	7c f0 0f 00 	and.b	#15,	r12	;#0x000f
    fcc0:	81 4c 0e 00 	mov	r12,	14(r1)	; 0x000e
    fcc4:	30 40 f2 fc 	br	#0xfcf2		;

0000fcc8 <.L16>:
        (&SHA_INPUT)[15 - i%16] = 0;
    fcc8:	1c 41 14 00 	mov	20(r1),	r12	;0x00014
    fccc:	7c f0 0f 00 	and.b	#15,	r12	;#0x000f
    fcd0:	0c 5c       	rla	r12		;
    fcd2:	0c 5c       	rla	r12		;
    fcd4:	0d 43       	clr	r13		;
    fcd6:	0d 8c       	sub	r12,	r13	;
    fcd8:	0c 4d       	mov	r13,	r12	;
    fcda:	3c 50 3c 00 	add	#60,	r12	;#0x003c
    fcde:	3c 50 12 00 	add	#18,	r12	;#0x0012
    fce2:	8c 43 00 00 	mov	#0,	0(r12)	;r3 As==00
    fce6:	8c 43 02 00 	mov	#0,	2(r12)	;r3 As==00

0000fcea <.Loc.62.1>:
        i++;
    fcea:	91 53 14 00 	inc	20(r1)		;

0000fcee <.Loc.60.1>:

        if (i%16 == 0) init = sha256_flush(init);
    }

    // set zeros
    for (unsigned int j = i%16; j < 15; j++) {
    fcee:	91 53 0e 00 	inc	14(r1)		;

0000fcf2 <.L15>:
    fcf2:	7c 40 0e 00 	mov.b	#14,	r12	;#0x000e
    fcf6:	1c 91 0e 00 	cmp	14(r1),	r12	;0x0000e
    fcfa:	e6 2f       	jc	$-50     	;abs 0xfcc8

0000fcfc <.LBE3>:
        (&SHA_INPUT)[15 - i%16] = 0;
        i++;
    }
    (&SHA_INPUT)[15 - i%16] = size;
    fcfc:	1c 41 14 00 	mov	20(r1),	r12	;0x00014
    fd00:	7c f0 0f 00 	and.b	#15,	r12	;#0x000f
    fd04:	0c 5c       	rla	r12		;
    fd06:	0c 5c       	rla	r12		;
    fd08:	0d 43       	clr	r13		;
    fd0a:	0d 8c       	sub	r12,	r13	;
    fd0c:	0c 4d       	mov	r13,	r12	;
    fd0e:	3c 50 3c 00 	add	#60,	r12	;#0x003c
    fd12:	3c 50 12 00 	add	#18,	r12	;#0x0012
    fd16:	9c 41 06 00 	mov	6(r1),	0(r12)	;
    fd1a:	00 00 
    fd1c:	9c 41 08 00 	mov	8(r1),	2(r12)	;
    fd20:	02 00 

0000fd22 <.Loc.66.1>:

    sha256_flush(init);
    fd22:	5c 41 13 00 	mov.b	19(r1),	r12	;0x00013
    fd26:	b0 12 56 fd 	call	#64854		;#0xfd56

0000fd2a <.Loc.68.1>:

    if (input->call != NULL && input->call < &smart_hash)
    fd2a:	2c 41       	mov	@r1,	r12	;
    fd2c:	1c 4c 04 00 	mov	4(r12),	r12	;
    fd30:	0c 93       	cmp	#0,	r12	;r3 As==00
    fd32:	0a 24       	jz	$+22     	;abs 0xfd48

0000fd34 <.Loc.68.1>:
    fd34:	2c 41       	mov	@r1,	r12	;
    fd36:	1c 4c 04 00 	mov	4(r12),	r12	;
    fd3a:	3c 90 e0 fa 	cmp	#64224,	r12	;#0xfae0
    fd3e:	04 2c       	jc	$+10     	;abs 0xfd48

0000fd40 <.Loc.69.1>:
        (input->call)();
    fd40:	2c 41       	mov	@r1,	r12	;
    fd42:	1c 4c 04 00 	mov	4(r12),	r12	;
    fd46:	8c 12       	call	r12		;

0000fd48 <.L17>:

    enable_interrupts();
    fd48:	03 43       	nop			
    fd4a:	32 d2       	eint			
    fd4c:	03 43       	nop			

0000fd4e <.Loc.72.1>:
}
    fd4e:	03 43       	nop			
    fd50:	31 50 16 00 	add	#22,	r1	;#0x0016
    fd54:	30 41       	ret			

0000fd56 <sha256_flush>:

char SMART sha256_flush (char init) {
    fd56:	21 83       	decd	r1		;

0000fd58 <.LCFI1>:
    fd58:	c1 4c 01 00 	mov.b	r12,	1(r1)	;

0000fd5c <.Loc.75.1>:
    if (init) {
    fd5c:	c1 93 01 00 	cmp.b	#0,	1(r1)	;r3 As==00
    fd60:	09 24       	jz	$+20     	;abs 0xfd74

0000fd62 <.Loc.76.1>:
        init = 0;
    fd62:	c1 43 01 00 	mov.b	#0,	1(r1)	;r3 As==00

0000fd66 <.Loc.77.1>:
        SHA_CONFIG = SHA_MODE | SHA_INIT | SHA_ON;
    fd66:	7c 40 11 00 	mov.b	#17,	r12	;#0x0011
    fd6a:	fc 40 0b 00 	mov.b	#11,	0(r12)	;#0x000b
    fd6e:	00 00 
    fd70:	30 40 7e fd 	br	#0xfd7e		;

0000fd74 <.L19>:
    } else {
        SHA_CONFIG = SHA_MODE | SHA_NEXT | SHA_ON;
    fd74:	7c 40 11 00 	mov.b	#17,	r12	;#0x0011
    fd78:	fc 40 0d 00 	mov.b	#13,	0(r12)	;#0x000d
    fd7c:	00 00 

0000fd7e <.L20>:
    }

    SHA_CONFIG = SHA_MODE | SHA_ON;
    fd7e:	7c 40 11 00 	mov.b	#17,	r12	;#0x0011
    fd82:	fc 40 09 00 	mov.b	#9,	0(r12)	;
    fd86:	00 00 

0000fd88 <.Loc.83.1>:
    while (!(SHA_STATUS & (SHA_READY)));
    fd88:	03 43       	nop			

0000fd8a <.L21>:
    fd8a:	7c 40 11 00 	mov.b	#17,	r12	;#0x0011
    fd8e:	6c 4c       	mov.b	@r12,	r12	;
    fd90:	5c f3       	and.b	#1,	r12	;r3 As==01
    fd92:	0c 93       	cmp	#0,	r12	;r3 As==00
    fd94:	fa 27       	jz	$-10     	;abs 0xfd8a

0000fd96 <.Loc.85.1>:
    
    return init;
    fd96:	5c 41 01 00 	mov.b	1(r1),	r12	;

0000fd9a <.Loc.86.1>:
}
    fd9a:	21 53       	incd	r1		;
    fd9c:	30 41       	ret			

Disassembly of section __reset_vector:

0000fffe <__msp430_resetvec_hook>:
    fffe:	70 e0       	interrupt service routine at 0xe070

Disassembly of section .rodata:

0000e000 <__EH_FRAME_BEGIN__-0x60>:
    e000:	25 77       	subc	@r7,	r5	;
    e002:	00 0a       	bra	@r10		;
    e004:	00 54       	add	r4,	r0	;
    e006:	68 65       	addc.b	@r5,	r8	;
    e008:	20 71       	subc	@r1,	r0	;
    e00a:	75 69       	addc.b	@r9+,	r5	;
    e00c:	63 6b       	.word	0x6b63;	????
    e00e:	20 62       	addc	#4,	r0	;r2 As==10
    e010:	72 6f       	addc.b	@r15+,	r2	;
    e012:	77 6e       	addc.b	@r14+,	r7	;
    e014:	20 66       	addc	@r6,	r0	;
    e016:	6f 78       	subc.b	@r8,	r15	;
    e018:	20 6a       	addc	@r10,	r0	;
    e01a:	75 6d       	addc.b	@r13+,	r5	;
    e01c:	70 73       	subc.b	#-1,	r0	;r3 As==11
    e01e:	20 6f       	addc	@r15,	r0	;
    e020:	76 65       	addc.b	@r5+,	r6	;
    e022:	72 20       	jnz	$+230    	;abs 0xe108
    e024:	74 68       	addc.b	@r8+,	r4	;
    e026:	65 20       	jnz	$+204    	;abs 0xe0f2
    e028:	6c 61       	addc.b	@r1,	r12	;
    e02a:	7a 79       	subc.b	@r9+,	r10	;
    e02c:	20 64       	addc	@r4,	r0	;
    e02e:	6f 67       	addc.b	@r7,	r15	;
    e030:	2e 20       	jnz	$+94     	;abs 0xe08e
    e032:	54 68 65 20 	addc.b	8293(r8),r4	;0x02065
    e036:	71 75       	subc.b	@r5+,	r1	;
    e038:	69 63       	addc.b	#2,	r9	;r3 As==10
    e03a:	6b 20       	jnz	$+216    	;abs 0xe112
    e03c:	62 72       	subc.b	#4,	r2	;r2 As==10
    e03e:	6f 77       	subc.b	@r7,	r15	;
    e040:	6e 20       	jnz	$+222    	;abs 0xe11e
    e042:	66 6f       	addc.b	@r15,	r6	;
    e044:	78 20       	jnz	$+242    	;abs 0xe136
    e046:	6a 75       	subc.b	@r5,	r10	;
    e048:	6d 70       	subc.b	@r0,	r13	;
    e04a:	73 20       	jnz	$+232    	;abs 0xe132
    e04c:	6f 76       	subc.b	@r6,	r15	;
    e04e:	65 72       	subc.b	#4,	r5	;r2 As==10
    e050:	20 74       	subc	@r4,	r0	;
    e052:	68 65       	addc.b	@r5,	r8	;
    e054:	20 6c       	addc	@r12,	r0	;
    e056:	61 7a       	subc.b	@r10,	r1	;
    e058:	79 20       	jnz	$+244    	;abs 0xe14c
    e05a:	64 6f       	addc.b	@r15,	r4	;
    e05c:	67 2e       	jc	$-816    	;abs 0xdd2c
	...

0000e060 <__EH_FRAME_BEGIN__>:
    e060:	00 00       	beq			
	...

0000e064 <__fini_array_end>:
    e064:	00 00       	beq			
	...

0000e068 <__CTOR_LIST__>:
    e068:	ff ff       	.word	0xffff;	????

0000e06a <__CTOR_END__>:
	...

0000e06c <__DTOR_LIST__>:
    e06c:	ff ff       	.word	0xffff;	????

0000e06e <__DTOR_END__>:
	...

Disassembly of section .text:

0000e070 <__crt0_start>:
    e070:	31 40 00 06 	mov	#1536,	r1	;#0x0600

0000e074 <__crt0_init_bss>:
    e074:	3c 40 14 02 	mov	#532,	r12	;#0x0214

0000e078 <.Loc.74.1>:
    e078:	0d 43       	clr	r13		;

0000e07a <.Loc.75.1>:
    e07a:	3e 40 12 00 	mov	#18,	r14	;#0x0012

0000e07e <.Loc.79.1>:
    e07e:	b0 12 28 e9 	call	#59688		;#0xe928

0000e082 <__crt0_movedata>:
    e082:	3c 40 00 02 	mov	#512,	r12	;#0x0200

0000e086 <.Loc.116.1>:
    e086:	3d 40 74 e9 	mov	#59764,	r13	;#0xe974

0000e08a <.Loc.119.1>:
    e08a:	0d 9c       	cmp	r12,	r13	;

0000e08c <.Loc.120.1>:
    e08c:	04 24       	jz	$+10     	;abs 0xe096

0000e08e <.Loc.122.1>:
    e08e:	3e 40 14 00 	mov	#20,	r14	;#0x0014

0000e092 <.Loc.124.1>:
    e092:	b0 12 f0 e8 	call	#59632		;#0xe8f0

0000e096 <__crt0_call_init_then_main>:
    e096:	b0 12 58 e9 	call	#59736		;#0xe958

0000e09a <.Loc.196.1>:
    e09a:	0c 43       	clr	r12		;

0000e09c <.Loc.197.1>:
    e09c:	b0 12 8e e1 	call	#57742		;#0xe18e

0000e0a0 <_msp430_run_init_array>:
    e0a0:	34 40 64 e0 	mov	#57444,	r4	;#0xe064

0000e0a4 <.Loc.224.1>:
    e0a4:	35 40 64 e0 	mov	#57444,	r5	;#0xe064

0000e0a8 <.Loc.225.1>:
    e0a8:	26 43       	mov	#2,	r6	;r3 As==10

0000e0aa <.Loc.226.1>:
    e0aa:	30 40 cc e0 	br	#0xe0cc		;

0000e0ae <_msp430_run_preinit_array>:
    e0ae:	34 40 64 e0 	mov	#57444,	r4	;#0xe064

0000e0b2 <.Loc.232.1>:
    e0b2:	35 40 64 e0 	mov	#57444,	r5	;#0xe064

0000e0b6 <.Loc.233.1>:
    e0b6:	26 43       	mov	#2,	r6	;r3 As==10

0000e0b8 <.Loc.234.1>:
    e0b8:	30 40 cc e0 	br	#0xe0cc		;

0000e0bc <_msp430_run_fini_array>:
    e0bc:	34 40 64 e0 	mov	#57444,	r4	;#0xe064

0000e0c0 <.Loc.240.1>:
    e0c0:	35 40 64 e0 	mov	#57444,	r5	;#0xe064

0000e0c4 <.Loc.241.1>:
    e0c4:	36 40 fe ff 	mov	#65534,	r6	;#0xfffe

0000e0c8 <.Loc.242.1>:
    e0c8:	30 40 cc e0 	br	#0xe0cc		;

0000e0cc <_msp430_run_array>:
    e0cc:	05 94       	cmp	r4,	r5	;

0000e0ce <.Loc.246.1>:
    e0ce:	05 24       	jz	$+12     	;abs 0xe0da

0000e0d0 <.Loc.247.1>:
    e0d0:	27 44       	mov	@r4,	r7	;

0000e0d2 <.Loc.248.1>:
    e0d2:	04 56       	add	r6,	r4	;

0000e0d4 <.Loc.249.1>:
    e0d4:	a7 12       	call	@r7		;

0000e0d6 <.Loc.250.1>:
    e0d6:	10 40 f4 ff 	br	0xfff4		;PC rel. 0xe0cc

0000e0da <_msp430_run_done>:
    e0da:	30 41       	ret			

0000e0dc <L0>:
    e0dc:	30 41       	ret			
    e0de:	30 41       	ret			

0000e0e0 <deregister_tm_clones>:
    e0e0:	3c 40 74 e9 	mov	#59764,	r12	;#0xe974
    e0e4:	3c 90 74 e9 	cmp	#59764,	r12	;#0xe974
    e0e8:	07 24       	jz	$+16     	;abs 0xe0f8
    e0ea:	3d 40 00 00 	mov	#0,	r13	;
    e0ee:	0d 93       	cmp	#0,	r13	;r3 As==00
    e0f0:	03 24       	jz	$+8      	;abs 0xe0f8
    e0f2:	3c 40 74 e9 	mov	#59764,	r12	;#0xe974
    e0f6:	8d 12       	call	r13		;

0000e0f8 <.L1>:
    e0f8:	30 41       	ret			

0000e0fa <register_tm_clones>:
    e0fa:	0a 12       	push	r10		;
    e0fc:	3a 40 74 e9 	mov	#59764,	r10	;#0xe974
    e100:	3a 80 74 e9 	sub	#59764,	r10	;#0xe974
    e104:	0a 11       	rra	r10		;
    e106:	0c 4a       	mov	r10,	r12	;
    e108:	b0 12 26 e8 	call	#59430		;#0xe826
    e10c:	0c 5a       	add	r10,	r12	;
    e10e:	0d 4c       	mov	r12,	r13	;
    e110:	0d 11       	rra	r13		;
    e112:	0d 93       	cmp	#0,	r13	;r3 As==00
    e114:	07 24       	jz	$+16     	;abs 0xe124
    e116:	3e 40 00 00 	mov	#0,	r14	;
    e11a:	0e 93       	cmp	#0,	r14	;r3 As==00
    e11c:	03 24       	jz	$+8      	;abs 0xe124
    e11e:	3c 40 74 e9 	mov	#59764,	r12	;#0xe974
    e122:	8e 12       	call	r14		;

0000e124 <.L9>:
    e124:	3a 41       	pop	r10		;
    e126:	30 41       	ret			

0000e128 <__do_global_dtors_aux>:
    e128:	0a 12       	push	r10		;
    e12a:	09 12       	push	r9		;
    e12c:	c2 93 14 02 	cmp.b	#0,	&0x0214	;r3 As==00
    e130:	17 20       	jnz	$+48     	;abs 0xe160
    e132:	3a 40 6e e0 	mov	#57454,	r10	;#0xe06e
    e136:	3a 80 6c e0 	sub	#57452,	r10	;#0xe06c
    e13a:	0a 11       	rra	r10		;
    e13c:	3a 53       	add	#-1,	r10	;r3 As==11
    e13e:	39 40 6c e0 	mov	#57452,	r9	;#0xe06c

0000e142 <.L19>:
    e142:	1c 42 16 02 	mov	&0x0216,r12	;0x0216
    e146:	0c 9a       	cmp	r10,	r12	;
    e148:	0d 28       	jnc	$+28     	;abs 0xe164
    e14a:	b0 12 e0 e0 	call	#57568		;#0xe0e0
    e14e:	3d 40 00 00 	mov	#0,	r13	;
    e152:	0d 93       	cmp	#0,	r13	;r3 As==00
    e154:	03 24       	jz	$+8      	;abs 0xe15c
    e156:	3c 40 60 e0 	mov	#57440,	r12	;#0xe060
    e15a:	8d 12       	call	r13		;

0000e15c <.L21>:
    e15c:	d2 43 14 02 	mov.b	#1,	&0x0214	;r3 As==01

0000e160 <.L17>:
    e160:	30 40 ac e7 	br	#0xe7ac		;

0000e164 <.L20>:
    e164:	1c 53       	inc	r12		;
    e166:	82 4c 16 02 	mov	r12,	&0x0216	;
    e16a:	0c 5c       	rla	r12		;
    e16c:	0c 59       	add	r9,	r12	;
    e16e:	2c 4c       	mov	@r12,	r12	;
    e170:	8c 12       	call	r12		;
    e172:	30 40 42 e1 	br	#0xe142		;

0000e176 <call___do_global_dtors_aux>:
    e176:	3e 40 00 00 	mov	#0,	r14	;
    e17a:	0e 93       	cmp	#0,	r14	;r3 As==00
    e17c:	05 24       	jz	$+12     	;abs 0xe188
    e17e:	3d 40 18 02 	mov	#536,	r13	;#0x0218
    e182:	3c 40 60 e0 	mov	#57440,	r12	;#0xe060
    e186:	8e 12       	call	r14		;

0000e188 <.L27>:
    e188:	b0 12 fa e0 	call	#57594		;#0xe0fa
    e18c:	30 41       	ret			

0000e18e <main>:
//--------------------------------------------------//
// Main function with init an an endless loop that  //
// is synced with the interrupts trough the         //
// lowpower mode.                                   //
//--------------------------------------------------//
int main(void) {
    e18e:	31 80 6c 01 	sub	#364,	r1	;#0x016c

0000e192 <.LCFI0>:

    unsigned char string[] = "The quick brown fox jumps over the lazy dog. The quick brown fox jumps over the lazy dog.";
    e192:	0c 41       	mov	r1,	r12	;
    e194:	3c 50 0c 01 	add	#268,	r12	;#0x010c
    e198:	3d 40 05 e0 	mov	#57349,	r13	;#0xe005
    e19c:	7e 40 5a 00 	mov.b	#90,	r14	;#0x005a
    e1a0:	b0 12 da e8 	call	#59610		;#0xe8da

0000e1a4 <.Loc.19.1>:
    unsigned long nounce[64];
    struct smart_input input;

    input.str = string;
    e1a4:	3c 40 6c 01 	mov	#364,	r12	;#0x016c
    e1a8:	0c 51       	add	r1,	r12	;
    e1aa:	3c 50 a0 ff 	add	#65440,	r12	;#0xffa0
    e1ae:	81 4c 04 00 	mov	r12,	4(r1)	;

0000e1b2 <.Loc.20.1>:
    input.length = 89;
    e1b2:	b1 40 59 00 	mov	#89,	6(r1)	;#0x0059
    e1b6:	06 00 

0000e1b8 <.Loc.21.1>:
    input.call = NULL;
    e1b8:	81 43 08 00 	mov	#0,	8(r1)	;r3 As==00

0000e1bc <.Loc.22.1>:
    input.n = nounce;
    e1bc:	3d 40 6c 01 	mov	#364,	r13	;#0x016c
    e1c0:	0d 51       	add	r1,	r13	;
    e1c2:	3d 50 a0 fe 	add	#65184,	r13	;#0xfea0
    e1c6:	81 4d 0a 00 	mov	r13,	10(r1)	; 0x000a

0000e1ca <.Loc.24.1>:

    WDTCTL = WDTPW | WDTHOLD;           // Init watchdog timer
    e1ca:	3c 40 20 01 	mov	#288,	r12	;#0x0120
    e1ce:	bc 40 80 5a 	mov	#23168,	0(r12)	;#0x5a80
    e1d2:	00 00 

0000e1d4 <.Loc.26.1>:

    UART_BAUD = BAUD;                   // Init UART
    e1d4:	7c 40 82 00 	mov.b	#130,	r12	;#0x0082
    e1d8:	bc 40 11 04 	mov	#1041,	0(r12)	;#0x0411
    e1dc:	00 00 

0000e1de <.Loc.27.1>:
    UART_CTL  = UART_EN | UART_IEN_RX;
    e1de:	7c 40 80 00 	mov.b	#128,	r12	;#0x0080
    e1e2:	fc 40 11 00 	mov.b	#17,	0(r12)	;#0x0011
    e1e6:	00 00 

0000e1e8 <.LBB2>:

    // sha256(string, 89);
    for (int i = 0; i < 64; ++i) {
    e1e8:	81 43 6a 01 	mov	#0,	362(r1)	;r3 As==00, 0x016a
    e1ec:	30 40 14 e2 	br	#0xe214		;

0000e1f0 <.L3>:
        nounce[i] = 0x23001120;
    e1f0:	1c 41 6a 01 	mov	362(r1),r12	;0x0016a
    e1f4:	0c 5c       	rla	r12		;
    e1f6:	0c 5c       	rla	r12		;
    e1f8:	3d 40 6c 01 	mov	#364,	r13	;#0x016c
    e1fc:	0d 51       	add	r1,	r13	;
    e1fe:	0c 5d       	add	r13,	r12	;
    e200:	3c 50 a0 fe 	add	#65184,	r12	;#0xfea0
    e204:	bc 40 20 11 	mov	#4384,	0(r12)	;#0x1120
    e208:	00 00 
    e20a:	bc 40 00 23 	mov	#8960,	2(r12)	;#0x2300
    e20e:	02 00 

0000e210 <.Loc.30.1>:

    UART_BAUD = BAUD;                   // Init UART
    UART_CTL  = UART_EN | UART_IEN_RX;

    // sha256(string, 89);
    for (int i = 0; i < 64; ++i) {
    e210:	91 53 6a 01 	inc	362(r1)		;

0000e214 <.L2>:
    e214:	7c 40 3f 00 	mov.b	#63,	r12	;#0x003f
    e218:	1c 91 6a 01 	cmp	362(r1),r12	;0x0016a
    e21c:	e9 37       	jge	$-44     	;abs 0xe1f0

0000e21e <.LBE2>:
        nounce[i] = 0x23001120;
    }

    smart_hash (&input);
    e21e:	0c 41       	mov	r1,	r12	;
    e220:	2c 52       	add	#4,	r12	;r2 As==10
    e222:	b0 12 e0 fa 	call	#64224		;#0xfae0

0000e226 <.LBB3>:

    for (int i = 0; i < 16; ++i) {
    e226:	81 43 68 01 	mov	#0,	360(r1)	;r3 As==00, 0x0168
    e22a:	30 40 54 e2 	br	#0xe254		;

0000e22e <.L5>:
        unsigned int c = ((unsigned int *)&SHA_OUTPUT)[15-i];
    e22e:	7c 40 0f 00 	mov.b	#15,	r12	;#0x000f
    e232:	1c 81 68 01 	sub	360(r1),r12	;0x00168
    e236:	0c 5c       	rla	r12		;
    e238:	3c 50 52 00 	add	#82,	r12	;#0x0052
    e23c:	a1 4c 66 01 	mov	@r12,	358(r1)	; 0x0166

0000e240 <.Loc.38.1>:
        cprintf("%w", c);
    e240:	91 41 66 01 	mov	358(r1),2(r1)	;0x00166
    e244:	02 00 
    e246:	b1 40 00 e0 	mov	#57344,	0(r1)	;#0xe000
    e24a:	00 00 
    e24c:	b0 12 e0 e4 	call	#58592		;#0xe4e0

0000e250 <.LBE4>:
        nounce[i] = 0x23001120;
    }

    smart_hash (&input);

    for (int i = 0; i < 16; ++i) {
    e250:	91 53 68 01 	inc	360(r1)		;

0000e254 <.L4>:
    e254:	7c 40 0f 00 	mov.b	#15,	r12	;#0x000f
    e258:	1c 91 68 01 	cmp	360(r1),r12	;0x00168
    e25c:	e8 37       	jge	$-46     	;abs 0xe22e

0000e25e <.LBE3>:
        unsigned int c = ((unsigned int *)&SHA_OUTPUT)[15-i];
        cprintf("%w", c);
    }
    cprintf("\n");
    e25e:	b1 40 03 e0 	mov	#57347,	0(r1)	;#0xe003
    e262:	00 00 
    e264:	b0 12 e0 e4 	call	#58592		;#0xe4e0

0000e268 <.L6>:

    while(1) {
    e268:	30 40 68 e2 	br	#0xe268		;

0000e26c <tty_putc>:

//--------------------------------------------------//
//                 tty_putc function                 //
//            (Send a byte to the UART)             //
//--------------------------------------------------//
static int tty_putc (int txdata) {
    e26c:	21 83       	decd	r1		;

0000e26e <.LCFI0>:
    e26e:	81 4c 00 00 	mov	r12,	0(r1)	;

0000e272 <.Loc.14.1>:

  // Wait until the TX buffer is not full
  while (UART_STAT & UART_TX_FULL);
    e272:	03 43       	nop			

0000e274 <.L2>:
    e274:	7c 40 81 00 	mov.b	#129,	r12	;#0x0081
    e278:	6c 4c       	mov.b	@r12,	r12	;
    e27a:	7c f2       	and.b	#8,	r12	;r2 As==11
    e27c:	0c 93       	cmp	#0,	r12	;r3 As==00
    e27e:	fa 23       	jnz	$-10     	;abs 0xe274

0000e280 <.Loc.17.1>:

  // Write the output character
  UART_TXD = txdata;
    e280:	7c 40 84 00 	mov.b	#132,	r12	;#0x0084
    e284:	2d 41       	mov	@r1,	r13	;
    e286:	3d f0 ff 00 	and	#255,	r13	;#0x00ff
    e28a:	cc 4d 00 00 	mov.b	r13,	0(r12)	;

0000e28e <.Loc.19.1>:

  return 0;
    e28e:	4c 43       	clr.b	r12		;

0000e290 <.Loc.20.1>:
}
    e290:	21 53       	incd	r1		;
    e292:	30 41       	ret			

0000e294 <cput_nibble>:

void
cput_nibble (int n) {
    e294:	21 83       	decd	r1		;

0000e296 <.LCFI1>:
    e296:	81 4c 00 00 	mov	r12,	0(r1)	;

0000e29a <.Loc.24.1>:
  tty_putc (hex[n&0x0f]);
    e29a:	2c 41       	mov	@r1,	r12	;
    e29c:	7c f0 0f 00 	and.b	#15,	r12	;#0x000f
    e2a0:	5c 4c 02 02 	mov.b	514(r12),r12	;0x00202
    e2a4:	b0 12 6c e2 	call	#57964		;#0xe26c

0000e2a8 <.Loc.25.1>:
}
    e2a8:	03 43       	nop			
    e2aa:	21 53       	incd	r1		;
    e2ac:	30 41       	ret			

0000e2ae <cput_hex_byte>:

void
cput_hex_byte (int n) {
    e2ae:	21 83       	decd	r1		;

0000e2b0 <.LCFI2>:
    e2b0:	81 4c 00 00 	mov	r12,	0(r1)	;

0000e2b4 <.Loc.29.1>:
  cput_nibble (n >> 4);
    e2b4:	2c 41       	mov	@r1,	r12	;
    e2b6:	b0 12 c8 e7 	call	#59336		;#0xe7c8
    e2ba:	b0 12 94 e2 	call	#58004		;#0xe294

0000e2be <.Loc.30.1>:
  cput_nibble (n);
    e2be:	2c 41       	mov	@r1,	r12	;
    e2c0:	b0 12 94 e2 	call	#58004		;#0xe294

0000e2c4 <.Loc.31.1>:
}
    e2c4:	03 43       	nop			
    e2c6:	21 53       	incd	r1		;
    e2c8:	30 41       	ret			

0000e2ca <cput_binary_byte>:

void
cput_binary_byte (int n) {
    e2ca:	21 82       	sub	#4,	r1	;r2 As==10

0000e2cc <.LCFI3>:
    e2cc:	81 4c 00 00 	mov	r12,	0(r1)	;

0000e2d0 <.Loc.36.1>:
  int i;
  for (i=7; i>=0; i--)
    e2d0:	b1 40 07 00 	mov	#7,	2(r1)	;
    e2d4:	02 00 
    e2d6:	30 40 fe e2 	br	#0xe2fe		;

0000e2da <.L10>:
    tty_putc((n & (1<<i)) ? '1' : '0');
    e2da:	2c 41       	mov	@r1,	r12	;
    e2dc:	1d 41 02 00 	mov	2(r1),	r13	;
    e2e0:	b0 12 d6 e7 	call	#59350		;#0xe7d6
    e2e4:	5c f3       	and.b	#1,	r12	;r3 As==01
    e2e6:	0c 93       	cmp	#0,	r12	;r3 As==00
    e2e8:	04 24       	jz	$+10     	;abs 0xe2f2

0000e2ea <.Loc.37.1>:
    e2ea:	7c 40 31 00 	mov.b	#49,	r12	;#0x0031
    e2ee:	30 40 f6 e2 	br	#0xe2f6		;

0000e2f2 <.L8>:
    e2f2:	7c 40 30 00 	mov.b	#48,	r12	;#0x0030

0000e2f6 <.L9>:
    e2f6:	b0 12 6c e2 	call	#57964		;#0xe26c

0000e2fa <.Loc.36.1>:
}

void
cput_binary_byte (int n) {
  int i;
  for (i=7; i>=0; i--)
    e2fa:	b1 53 02 00 	add	#-1,	2(r1)	;r3 As==11

0000e2fe <.L7>:
    e2fe:	81 93 02 00 	cmp	#0,	2(r1)	;r3 As==00
    e302:	eb 37       	jge	$-40     	;abs 0xe2da

0000e304 <.Loc.38.1>:
    tty_putc((n & (1<<i)) ? '1' : '0');
}
    e304:	03 43       	nop			
    e306:	21 52       	add	#4,	r1	;r2 As==10
    e308:	30 41       	ret			

0000e30a <cput_hex_word>:

void
cput_hex_word (int n) {
    e30a:	21 83       	decd	r1		;

0000e30c <.LCFI4>:
    e30c:	81 4c 00 00 	mov	r12,	0(r1)	;

0000e310 <.Loc.42.1>:
  cput_hex_byte (n >> 8);
    e310:	2c 41       	mov	@r1,	r12	;
    e312:	b0 12 c0 e7 	call	#59328		;#0xe7c0
    e316:	b0 12 ae e2 	call	#58030		;#0xe2ae

0000e31a <.Loc.43.1>:
  cput_hex_byte (n);
    e31a:	2c 41       	mov	@r1,	r12	;
    e31c:	b0 12 ae e2 	call	#58030		;#0xe2ae

0000e320 <.Loc.44.1>:
}
    e320:	03 43       	nop			
    e322:	21 53       	incd	r1		;
    e324:	30 41       	ret			

0000e326 <cput_hex_long>:

void
cput_hex_long (long int n) {
    e326:	21 82       	sub	#4,	r1	;r2 As==10

0000e328 <.LCFI5>:
    e328:	81 4c 00 00 	mov	r12,	0(r1)	;
    e32c:	81 4d 02 00 	mov	r13,	2(r1)	;

0000e330 <.Loc.48.1>:
  cput_hex_byte (n >> 24);
    e330:	2c 41       	mov	@r1,	r12	;
    e332:	1d 41 02 00 	mov	2(r1),	r13	;
    e336:	7e 40 18 00 	mov.b	#24,	r14	;#0x0018
    e33a:	4f 43       	clr.b	r15		;
    e33c:	b0 12 20 e8 	call	#59424		;#0xe820
    e340:	b0 12 ae e2 	call	#58030		;#0xe2ae

0000e344 <.Loc.49.1>:
  cput_hex_byte (n >> 16);
    e344:	2c 41       	mov	@r1,	r12	;
    e346:	1d 41 02 00 	mov	2(r1),	r13	;
    e34a:	7e 40 10 00 	mov.b	#16,	r14	;#0x0010
    e34e:	4f 43       	clr.b	r15		;
    e350:	b0 12 20 e8 	call	#59424		;#0xe820
    e354:	b0 12 ae e2 	call	#58030		;#0xe2ae

0000e358 <.Loc.50.1>:
  cput_hex_byte (n >> 8);
    e358:	2c 41       	mov	@r1,	r12	;
    e35a:	1d 41 02 00 	mov	2(r1),	r13	;
    e35e:	b0 12 f8 e7 	call	#59384		;#0xe7f8
    e362:	b0 12 ae e2 	call	#58030		;#0xe2ae

0000e366 <.Loc.51.1>:
  cput_hex_byte (n);
    e366:	2c 41       	mov	@r1,	r12	;
    e368:	b0 12 ae e2 	call	#58030		;#0xe2ae

0000e36c <.Loc.52.1>:
}
    e36c:	03 43       	nop			
    e36e:	21 52       	add	#4,	r1	;r2 As==10
    e370:	30 41       	ret			

0000e372 <cput_hex_block>:

void
cput_hex_block (char *block, int n) {
    e372:	31 80 06 00 	sub	#6,	r1	;

0000e376 <.LCFI6>:
    e376:	81 4c 02 00 	mov	r12,	2(r1)	;
    e37a:	81 4d 00 00 	mov	r13,	0(r1)	;

0000e37e <.Loc.56.1>:
  int i = 0;
    e37e:	81 43 04 00 	mov	#0,	4(r1)	;r3 As==00

0000e382 <.Loc.57.1>:
  while (n)
    e382:	30 40 c6 e3 	br	#0xe3c6		;

0000e386 <.L18>:
    {
      cput_hex_byte (*block++);
    e386:	1c 41 02 00 	mov	2(r1),	r12	;
    e38a:	0d 4c       	mov	r12,	r13	;
    e38c:	1d 53       	inc	r13		;
    e38e:	81 4d 02 00 	mov	r13,	2(r1)	;
    e392:	6c 4c       	mov.b	@r12,	r12	;
    e394:	b0 12 ae e2 	call	#58030		;#0xe2ae

0000e398 <.Loc.60.1>:
      if (--n == 0)
    e398:	b1 53 00 00 	add	#-1,	0(r1)	;r3 As==11
    e39c:	81 93 00 00 	cmp	#0,	0(r1)	;r3 As==00
    e3a0:	17 24       	jz	$+48     	;abs 0xe3d0

0000e3a2 <.Loc.62.1>:
	break;
      i++;
    e3a2:	91 53 04 00 	inc	4(r1)		;

0000e3a6 <.Loc.63.1>:
      if ((i & 7) == 0)
    e3a6:	1c 41 04 00 	mov	4(r1),	r12	;
    e3aa:	7c f0 07 00 	and.b	#7,	r12	;
    e3ae:	0c 93       	cmp	#0,	r12	;r3 As==00
    e3b0:	06 20       	jnz	$+14     	;abs 0xe3be

0000e3b2 <.Loc.64.1>:
	tty_putc (' ');
    e3b2:	7c 40 20 00 	mov.b	#32,	r12	;#0x0020
    e3b6:	b0 12 6c e2 	call	#57964		;#0xe26c
    e3ba:	30 40 c6 e3 	br	#0xe3c6		;

0000e3be <.L17>:
      else
	tty_putc (':');
    e3be:	7c 40 3a 00 	mov.b	#58,	r12	;#0x003a
    e3c2:	b0 12 6c e2 	call	#57964		;#0xe26c

0000e3c6 <.L14>:
}

void
cput_hex_block (char *block, int n) {
  int i = 0;
  while (n)
    e3c6:	81 93 00 00 	cmp	#0,	0(r1)	;r3 As==00
    e3ca:	dd 23       	jnz	$-68     	;abs 0xe386

0000e3cc <.Loc.68.1>:
      if ((i & 7) == 0)
	tty_putc (' ');
      else
	tty_putc (':');
    }
}
    e3cc:	30 40 d2 e3 	br	#0xe3d2		;

0000e3d0 <.L19>:
  int i = 0;
  while (n)
    {
      cput_hex_byte (*block++);
      if (--n == 0)
	break;
    e3d0:	03 43       	nop			

0000e3d2 <.L16>:
      if ((i & 7) == 0)
	tty_putc (' ');
      else
	tty_putc (':');
    }
}
    e3d2:	03 43       	nop			
    e3d4:	31 50 06 00 	add	#6,	r1	;
    e3d8:	30 41       	ret			

0000e3da <cput_nibble_block>:

void
cput_nibble_block (char *block, int n) {
    e3da:	31 80 06 00 	sub	#6,	r1	;

0000e3de <.LCFI7>:
    e3de:	81 4c 02 00 	mov	r12,	2(r1)	;
    e3e2:	81 4d 00 00 	mov	r13,	0(r1)	;

0000e3e6 <.Loc.72.1>:
  int i = 0;
    e3e6:	81 43 04 00 	mov	#0,	4(r1)	;r3 As==00

0000e3ea <.Loc.73.1>:
  while (n)
    e3ea:	30 40 1a e4 	br	#0xe41a		;

0000e3ee <.L24>:
    {
      cput_nibble (*block);
    e3ee:	1c 41 02 00 	mov	2(r1),	r12	;
    e3f2:	6c 4c       	mov.b	@r12,	r12	;
    e3f4:	b0 12 94 e2 	call	#58004		;#0xe294

0000e3f8 <.Loc.76.1>:
      if (--n == 0)
    e3f8:	b1 53 00 00 	add	#-1,	0(r1)	;r3 As==11
    e3fc:	81 93 00 00 	cmp	#0,	0(r1)	;r3 As==00
    e400:	11 24       	jz	$+36     	;abs 0xe424

0000e402 <.Loc.78.1>:
	break;
      i++;
    e402:	91 53 04 00 	inc	4(r1)		;

0000e406 <.Loc.79.1>:
      if ((i & 7) == 0)
    e406:	1c 41 04 00 	mov	4(r1),	r12	;
    e40a:	7c f0 07 00 	and.b	#7,	r12	;
    e40e:	0c 93       	cmp	#0,	r12	;r3 As==00
    e410:	04 20       	jnz	$+10     	;abs 0xe41a

0000e412 <.Loc.80.1>:
	tty_putc (' ');
    e412:	7c 40 20 00 	mov.b	#32,	r12	;#0x0020
    e416:	b0 12 6c e2 	call	#57964		;#0xe26c

0000e41a <.L21>:
}

void
cput_nibble_block (char *block, int n) {
  int i = 0;
  while (n)
    e41a:	81 93 00 00 	cmp	#0,	0(r1)	;r3 As==00
    e41e:	e7 23       	jnz	$-48     	;abs 0xe3ee

0000e420 <.Loc.82.1>:
	break;
      i++;
      if ((i & 7) == 0)
	tty_putc (' ');
    }
}
    e420:	30 40 26 e4 	br	#0xe426		;

0000e424 <.L25>:
  int i = 0;
  while (n)
    {
      cput_nibble (*block);
      if (--n == 0)
	break;
    e424:	03 43       	nop			

0000e426 <.L23>:
      i++;
      if ((i & 7) == 0)
	tty_putc (' ');
    }
}
    e426:	03 43       	nop			
    e428:	31 50 06 00 	add	#6,	r1	;
    e42c:	30 41       	ret			

0000e42e <cput_number>:

void
cput_number (int n) {
    e42e:	31 80 18 00 	sub	#24,	r1	;#0x0018

0000e432 <.LCFI8>:
    e432:	81 4c 00 00 	mov	r12,	0(r1)	;

0000e436 <.Loc.87.1>:
  char buf[20];
  int i = 0;
    e436:	81 43 16 00 	mov	#0,	22(r1)	;r3 As==00, 0x0016

0000e43a <.Loc.88.1>:
  if (n < 0)
    e43a:	81 93 00 00 	cmp	#0,	0(r1)	;r3 As==00
    e43e:	25 34       	jge	$+76     	;abs 0xe48a

0000e440 <.Loc.90.1>:
    {
      tty_putc ('-');
    e440:	7c 40 2d 00 	mov.b	#45,	r12	;#0x002d
    e444:	b0 12 6c e2 	call	#57964		;#0xe26c

0000e448 <.Loc.91.1>:
      n = -n;
    e448:	4c 43       	clr.b	r12		;
    e44a:	2c 81       	sub	@r1,	r12	;
    e44c:	81 4c 00 00 	mov	r12,	0(r1)	;

0000e450 <.Loc.93.1>:
    }
  while (n > 9)
    e450:	30 40 8a e4 	br	#0xe48a		;

0000e454 <.L29>:
    {
      buf[i++] = (n%10) + '0';
    e454:	2c 41       	mov	@r1,	r12	;
    e456:	7d 40 0a 00 	mov.b	#10,	r13	;#0x000a
    e45a:	b0 12 60 e7 	call	#59232		;#0xe760
    e45e:	4d 4c       	mov.b	r12,	r13	;
    e460:	1c 41 16 00 	mov	22(r1),	r12	;0x00016
    e464:	0e 4c       	mov	r12,	r14	;
    e466:	1e 53       	inc	r14		;
    e468:	81 4e 16 00 	mov	r14,	22(r1)	; 0x0016
    e46c:	7d 50 30 00 	add.b	#48,	r13	;#0x0030
    e470:	4e 4d       	mov.b	r13,	r14	;
    e472:	0d 41       	mov	r1,	r13	;
    e474:	2d 53       	incd	r13		;
    e476:	0c 5d       	add	r13,	r12	;
    e478:	cc 4e 00 00 	mov.b	r14,	0(r12)	;

0000e47c <.Loc.96.1>:
      n /= 10;
    e47c:	2c 41       	mov	@r1,	r12	;
    e47e:	7d 40 0a 00 	mov.b	#10,	r13	;#0x000a
    e482:	b0 12 14 e7 	call	#59156		;#0xe714
    e486:	81 4c 00 00 	mov	r12,	0(r1)	;

0000e48a <.L28>:
  if (n < 0)
    {
      tty_putc ('-');
      n = -n;
    }
  while (n > 9)
    e48a:	7c 40 09 00 	mov.b	#9,	r12	;
    e48e:	2c 91       	cmp	@r1,	r12	;
    e490:	e1 3b       	jl	$-60     	;abs 0xe454

0000e492 <.Loc.98.1>:
    {
      buf[i++] = (n%10) + '0';
      n /= 10;
    }
  buf[i++] = (n%10) + '0';
    e492:	2c 41       	mov	@r1,	r12	;
    e494:	7d 40 0a 00 	mov.b	#10,	r13	;#0x000a
    e498:	b0 12 60 e7 	call	#59232		;#0xe760
    e49c:	4d 4c       	mov.b	r12,	r13	;
    e49e:	1c 41 16 00 	mov	22(r1),	r12	;0x00016
    e4a2:	0e 4c       	mov	r12,	r14	;
    e4a4:	1e 53       	inc	r14		;
    e4a6:	81 4e 16 00 	mov	r14,	22(r1)	; 0x0016
    e4aa:	7d 50 30 00 	add.b	#48,	r13	;#0x0030
    e4ae:	4e 4d       	mov.b	r13,	r14	;
    e4b0:	0d 41       	mov	r1,	r13	;
    e4b2:	2d 53       	incd	r13		;
    e4b4:	0c 5d       	add	r13,	r12	;
    e4b6:	cc 4e 00 00 	mov.b	r14,	0(r12)	;

0000e4ba <.Loc.99.1>:
  while (i > 0)
    e4ba:	30 40 d0 e4 	br	#0xe4d0		;

0000e4be <.L31>:
    tty_putc (buf[--i]);
    e4be:	b1 53 16 00 	add	#-1,	22(r1)	;r3 As==11, 0x0016
    e4c2:	0c 41       	mov	r1,	r12	;
    e4c4:	2c 53       	incd	r12		;
    e4c6:	1c 51 16 00 	add	22(r1),	r12	;0x00016
    e4ca:	6c 4c       	mov.b	@r12,	r12	;
    e4cc:	b0 12 6c e2 	call	#57964		;#0xe26c

0000e4d0 <.L30>:
    {
      buf[i++] = (n%10) + '0';
      n /= 10;
    }
  buf[i++] = (n%10) + '0';
  while (i > 0)
    e4d0:	4c 43       	clr.b	r12		;
    e4d2:	1c 91 16 00 	cmp	22(r1),	r12	;0x00016
    e4d6:	f3 3b       	jl	$-24     	;abs 0xe4be

0000e4d8 <.Loc.101.1>:
    tty_putc (buf[--i]);
}
    e4d8:	03 43       	nop			
    e4da:	31 50 18 00 	add	#24,	r1	;#0x0018
    e4de:	30 41       	ret			

0000e4e0 <cprintf>:

void
cprintf (const char *fmt, ...) {
    e4e0:	31 80 06 00 	sub	#6,	r1	;

0000e4e4 <.LCFI9>:
  va_list v;
  int i;
  char *s;

  va_start (v, fmt);
    e4e4:	0c 41       	mov	r1,	r12	;
    e4e6:	3c 50 0a 00 	add	#10,	r12	;#0x000a
    e4ea:	81 4c 00 00 	mov	r12,	0(r1)	;

0000e4ee <.Loc.111.1>:

  while (*fmt) {
    e4ee:	30 40 c2 e6 	br	#0xe6c2		;

0000e4f2 <.L49>:
      if (*fmt != '%')
    e4f2:	1c 41 08 00 	mov	8(r1),	r12	;
    e4f6:	6c 4c       	mov.b	@r12,	r12	;
    e4f8:	7c 90 25 00 	cmp.b	#37,	r12	;#0x0025
    e4fc:	07 24       	jz	$+16     	;abs 0xe50c

0000e4fe <.Loc.113.1>:
	tty_putc (*fmt);
    e4fe:	1c 41 08 00 	mov	8(r1),	r12	;
    e502:	6c 4c       	mov.b	@r12,	r12	;
    e504:	b0 12 6c e2 	call	#57964		;#0xe26c
    e508:	30 40 be e6 	br	#0xe6be		;

0000e50c <.L34>:
      else
	switch (*++fmt)
    e50c:	91 53 08 00 	inc	8(r1)		;
    e510:	1c 41 08 00 	mov	8(r1),	r12	;
    e514:	6c 4c       	mov.b	@r12,	r12	;
    e516:	3c 90 64 00 	cmp	#100,	r12	;#0x0064
    e51a:	44 24       	jz	$+138    	;abs 0xe5a4
    e51c:	7d 40 64 00 	mov.b	#100,	r13	;#0x0064
    e520:	0d 9c       	cmp	r12,	r13	;
    e522:	14 38       	jl	$+42     	;abs 0xe54c
    e524:	3c 90 42 00 	cmp	#66,	r12	;#0x0042
    e528:	5b 24       	jz	$+184    	;abs 0xe5e0
    e52a:	7d 40 42 00 	mov.b	#66,	r13	;#0x0042
    e52e:	0d 9c       	cmp	r12,	r13	;
    e530:	05 38       	jl	$+12     	;abs 0xe53c
    e532:	3c 90 25 00 	cmp	#37,	r12	;#0x0025
    e536:	21 24       	jz	$+68     	;abs 0xe57a
    e538:	30 40 be e6 	br	#0xe6be		;

0000e53c <.L39>:
    e53c:	3c 90 62 00 	cmp	#98,	r12	;#0x0062
    e540:	40 24       	jz	$+130    	;abs 0xe5c2
    e542:	3c 90 63 00 	cmp	#99,	r12	;#0x0063
    e546:	1f 24       	jz	$+64     	;abs 0xe586
    e548:	30 40 be e6 	br	#0xe6be		;

0000e54c <.L37>:
    e54c:	3c 90 73 00 	cmp	#115,	r12	;#0x0073
    e550:	a9 24       	jz	$+340    	;abs 0xe6a4
    e552:	7d 40 73 00 	mov.b	#115,	r13	;#0x0073
    e556:	0d 9c       	cmp	r12,	r13	;
    e558:	08 38       	jl	$+18     	;abs 0xe56a
    e55a:	3c 90 6c 00 	cmp	#108,	r12	;#0x006c
    e55e:	5e 24       	jz	$+190    	;abs 0xe61c
    e560:	3c 90 6e 00 	cmp	#110,	r12	;#0x006e
    e564:	87 24       	jz	$+272    	;abs 0xe674
    e566:	30 40 be e6 	br	#0xe6be		;

0000e56a <.L44>:
    e56a:	3c 90 77 00 	cmp	#119,	r12	;#0x0077
    e56e:	47 24       	jz	$+144    	;abs 0xe5fe
    e570:	3c 90 78 00 	cmp	#120,	r12	;#0x0078
    e574:	67 24       	jz	$+208    	;abs 0xe644
    e576:	30 40 be e6 	br	#0xe6be		;

0000e57a <.L40>:
	  {
	  case '%':
	    tty_putc ('%');
    e57a:	7c 40 25 00 	mov.b	#37,	r12	;#0x0025
    e57e:	b0 12 6c e2 	call	#57964		;#0xe26c

0000e582 <.Loc.119.1>:
	    break;
    e582:	30 40 be e6 	br	#0xe6be		;

0000e586 <.L42>:
	  case 'c':
	    i = va_arg (v, int);
    e586:	2c 41       	mov	@r1,	r12	;
    e588:	1c 53       	inc	r12		;
    e58a:	1c c3       	bic	#1,	r12	;r3 As==01
    e58c:	0d 4c       	mov	r12,	r13	;
    e58e:	2d 53       	incd	r13		;
    e590:	81 4d 00 00 	mov	r13,	0(r1)	;
    e594:	a1 4c 02 00 	mov	@r12,	2(r1)	;

0000e598 <.Loc.122.1>:
	    tty_putc(i);
    e598:	1c 41 02 00 	mov	2(r1),	r12	;
    e59c:	b0 12 6c e2 	call	#57964		;#0xe26c

0000e5a0 <.Loc.123.1>:
	    break;
    e5a0:	30 40 be e6 	br	#0xe6be		;

0000e5a4 <.L36>:
	  case 'd':
	    i = va_arg (v, int);
    e5a4:	2c 41       	mov	@r1,	r12	;
    e5a6:	1c 53       	inc	r12		;
    e5a8:	1c c3       	bic	#1,	r12	;r3 As==01
    e5aa:	0d 4c       	mov	r12,	r13	;
    e5ac:	2d 53       	incd	r13		;
    e5ae:	81 4d 00 00 	mov	r13,	0(r1)	;
    e5b2:	a1 4c 02 00 	mov	@r12,	2(r1)	;

0000e5b6 <.Loc.126.1>:
	    cput_number(i);
    e5b6:	1c 41 02 00 	mov	2(r1),	r12	;
    e5ba:	b0 12 2e e4 	call	#58414		;#0xe42e

0000e5be <.Loc.127.1>:
	    break;
    e5be:	30 40 be e6 	br	#0xe6be		;

0000e5c2 <.L41>:
	  case 'b':
	    i = va_arg (v, int);
    e5c2:	2c 41       	mov	@r1,	r12	;
    e5c4:	1c 53       	inc	r12		;
    e5c6:	1c c3       	bic	#1,	r12	;r3 As==01
    e5c8:	0d 4c       	mov	r12,	r13	;
    e5ca:	2d 53       	incd	r13		;
    e5cc:	81 4d 00 00 	mov	r13,	0(r1)	;
    e5d0:	a1 4c 02 00 	mov	@r12,	2(r1)	;

0000e5d4 <.Loc.130.1>:
	    cput_hex_byte (i);
    e5d4:	1c 41 02 00 	mov	2(r1),	r12	;
    e5d8:	b0 12 ae e2 	call	#58030		;#0xe2ae

0000e5dc <.Loc.131.1>:
	    break;
    e5dc:	30 40 be e6 	br	#0xe6be		;

0000e5e0 <.L38>:
	  case 'B':
	    i = va_arg (v, int);
    e5e0:	2c 41       	mov	@r1,	r12	;
    e5e2:	1c 53       	inc	r12		;
    e5e4:	1c c3       	bic	#1,	r12	;r3 As==01
    e5e6:	0d 4c       	mov	r12,	r13	;
    e5e8:	2d 53       	incd	r13		;
    e5ea:	81 4d 00 00 	mov	r13,	0(r1)	;
    e5ee:	a1 4c 02 00 	mov	@r12,	2(r1)	;

0000e5f2 <.Loc.134.1>:
	    cput_binary_byte (i);
    e5f2:	1c 41 02 00 	mov	2(r1),	r12	;
    e5f6:	b0 12 ca e2 	call	#58058		;#0xe2ca

0000e5fa <.Loc.135.1>:
	    break;
    e5fa:	30 40 be e6 	br	#0xe6be		;

0000e5fe <.L47>:
	  case 'w':
	    i = va_arg (v, int);
    e5fe:	2c 41       	mov	@r1,	r12	;
    e600:	1c 53       	inc	r12		;
    e602:	1c c3       	bic	#1,	r12	;r3 As==01
    e604:	0d 4c       	mov	r12,	r13	;
    e606:	2d 53       	incd	r13		;
    e608:	81 4d 00 00 	mov	r13,	0(r1)	;
    e60c:	a1 4c 02 00 	mov	@r12,	2(r1)	;

0000e610 <.Loc.138.1>:
	    cput_hex_word (i);
    e610:	1c 41 02 00 	mov	2(r1),	r12	;
    e614:	b0 12 0a e3 	call	#58122		;#0xe30a

0000e618 <.Loc.139.1>:
	    break;
    e618:	30 40 be e6 	br	#0xe6be		;

0000e61c <.L45>:
	  case 'l':
	    i = va_arg (v, int);
    e61c:	2c 41       	mov	@r1,	r12	;
    e61e:	1c 53       	inc	r12		;
    e620:	1c c3       	bic	#1,	r12	;r3 As==01
    e622:	0d 4c       	mov	r12,	r13	;
    e624:	2d 53       	incd	r13		;
    e626:	81 4d 00 00 	mov	r13,	0(r1)	;
    e62a:	a1 4c 02 00 	mov	@r12,	2(r1)	;

0000e62e <.Loc.142.1>:
	    cput_hex_long (i);
    e62e:	1e 41 02 00 	mov	2(r1),	r14	;
    e632:	0c 4e       	mov	r14,	r12	;
    e634:	3c b0 00 80 	bit	#32768,	r12	;#0x8000
    e638:	0d 7d       	subc	r13,	r13	;
    e63a:	3d e3       	inv	r13		;
    e63c:	b0 12 26 e3 	call	#58150		;#0xe326

0000e640 <.Loc.143.1>:
	    break;
    e640:	30 40 be e6 	br	#0xe6be		;

0000e644 <.L48>:
	  case 'x':
	    s = va_arg (v, char *);
    e644:	2c 41       	mov	@r1,	r12	;
    e646:	0d 4c       	mov	r12,	r13	;
    e648:	2d 53       	incd	r13		;
    e64a:	81 4d 00 00 	mov	r13,	0(r1)	;
    e64e:	a1 4c 04 00 	mov	@r12,	4(r1)	;

0000e652 <.Loc.146.1>:
	    i = va_arg (v, int);
    e652:	2c 41       	mov	@r1,	r12	;
    e654:	1c 53       	inc	r12		;
    e656:	1c c3       	bic	#1,	r12	;r3 As==01
    e658:	0d 4c       	mov	r12,	r13	;
    e65a:	2d 53       	incd	r13		;
    e65c:	81 4d 00 00 	mov	r13,	0(r1)	;
    e660:	a1 4c 02 00 	mov	@r12,	2(r1)	;

0000e664 <.Loc.147.1>:
	    cput_hex_block (s, i);
    e664:	1d 41 02 00 	mov	2(r1),	r13	;
    e668:	1c 41 04 00 	mov	4(r1),	r12	;
    e66c:	b0 12 72 e3 	call	#58226		;#0xe372

0000e670 <.Loc.148.1>:
	    break;
    e670:	30 40 be e6 	br	#0xe6be		;

0000e674 <.L46>:
	  case 'n':
	    s = va_arg (v, char *);
    e674:	2c 41       	mov	@r1,	r12	;
    e676:	0d 4c       	mov	r12,	r13	;
    e678:	2d 53       	incd	r13		;
    e67a:	81 4d 00 00 	mov	r13,	0(r1)	;
    e67e:	a1 4c 04 00 	mov	@r12,	4(r1)	;

0000e682 <.Loc.151.1>:
	    i = va_arg (v, int);
    e682:	2c 41       	mov	@r1,	r12	;
    e684:	1c 53       	inc	r12		;
    e686:	1c c3       	bic	#1,	r12	;r3 As==01
    e688:	0d 4c       	mov	r12,	r13	;
    e68a:	2d 53       	incd	r13		;
    e68c:	81 4d 00 00 	mov	r13,	0(r1)	;
    e690:	a1 4c 02 00 	mov	@r12,	2(r1)	;

0000e694 <.Loc.152.1>:
	    cput_nibble_block (s, i);
    e694:	1d 41 02 00 	mov	2(r1),	r13	;
    e698:	1c 41 04 00 	mov	4(r1),	r12	;
    e69c:	b0 12 da e3 	call	#58330		;#0xe3da

0000e6a0 <.Loc.153.1>:
	    break;
    e6a0:	30 40 be e6 	br	#0xe6be		;

0000e6a4 <.L43>:
	  case 's':
	    s = va_arg (v, char *);
    e6a4:	2c 41       	mov	@r1,	r12	;
    e6a6:	0d 4c       	mov	r12,	r13	;
    e6a8:	2d 53       	incd	r13		;
    e6aa:	81 4d 00 00 	mov	r13,	0(r1)	;
    e6ae:	a1 4c 04 00 	mov	@r12,	4(r1)	;

0000e6b2 <.Loc.156.1>:
	    tty_putc (s[0]);
    e6b2:	1c 41 04 00 	mov	4(r1),	r12	;
    e6b6:	6c 4c       	mov.b	@r12,	r12	;
    e6b8:	b0 12 6c e2 	call	#57964		;#0xe26c

0000e6bc <.Loc.157.1>:
	    break;
    e6bc:	03 43       	nop			

0000e6be <.L35>:
	  }
      fmt ++;
    e6be:	91 53 08 00 	inc	8(r1)		;

0000e6c2 <.L33>:
  int i;
  char *s;

  va_start (v, fmt);

  while (*fmt) {
    e6c2:	1c 41 08 00 	mov	8(r1),	r12	;
    e6c6:	6c 4c       	mov.b	@r12,	r12	;
    e6c8:	0c 93       	cmp	#0,	r12	;r3 As==00
    e6ca:	13 23       	jnz	$-472    	;abs 0xe4f2

0000e6cc <.Loc.161.1>:
	    tty_putc (s[0]);
	    break;
	  }
      fmt ++;
    }
}
    e6cc:	03 43       	nop			
    e6ce:	31 50 06 00 	add	#6,	r1	;
    e6d2:	30 41       	ret			

0000e6d4 <udivmodhi4>:
    e6d4:	7f 40 11 00 	mov.b	#17,	r15	;#0x0011

0000e6d8 <.Loc.35.1>:
    e6d8:	5b 43       	mov.b	#1,	r11	;r3 As==01

0000e6da <.L2>:
    e6da:	0d 9c       	cmp	r12,	r13	;
    e6dc:	08 28       	jnc	$+18     	;abs 0xe6ee

0000e6de <.L15>:
    e6de:	4f 43       	clr.b	r15		;

0000e6e0 <.L4>:
    e6e0:	0b 93       	cmp	#0,	r11	;r3 As==00
    e6e2:	0e 20       	jnz	$+30     	;abs 0xe700

0000e6e4 <.L5>:
    e6e4:	0e 93       	cmp	#0,	r14	;r3 As==00
    e6e6:	01 24       	jz	$+4      	;abs 0xe6ea
    e6e8:	0f 4c       	mov	r12,	r15	;

0000e6ea <.L1>:
    e6ea:	0c 4f       	mov	r15,	r12	;
    e6ec:	30 41       	ret			

0000e6ee <.L3>:
    e6ee:	3f 53       	add	#-1,	r15	;r3 As==11

0000e6f0 <.Loc.38.1>:
    e6f0:	0f 93       	cmp	#0,	r15	;r3 As==00
    e6f2:	f8 27       	jz	$-14     	;abs 0xe6e4

0000e6f4 <.Loc.38.1>:
    e6f4:	0d 93       	cmp	#0,	r13	;r3 As==00
    e6f6:	f3 3b       	jl	$-24     	;abs 0xe6de

0000e6f8 <.Loc.40.1>:
    e6f8:	0d 5d       	rla	r13		;

0000e6fa <.Loc.41.1>:
    e6fa:	0b 5b       	rla	r11		;
    e6fc:	30 40 da e6 	br	#0xe6da		;

0000e700 <.L9>:
    e700:	0c 9d       	cmp	r13,	r12	;
    e702:	02 28       	jnc	$+6      	;abs 0xe708

0000e704 <.Loc.47.1>:
    e704:	0c 8d       	sub	r13,	r12	;

0000e706 <.Loc.48.1>:
    e706:	0f db       	bis	r11,	r15	;

0000e708 <.L8>:
    e708:	12 c3       	clrc			
    e70a:	0b 10       	rrc	r11		;

0000e70c <.Loc.51.1>:
    e70c:	12 c3       	clrc			
    e70e:	0d 10       	rrc	r13		;
    e710:	30 40 e0 e6 	br	#0xe6e0		;

0000e714 <__mspabi_divi>:
    e714:	0a 12       	push	r10		;

0000e716 <.LCFI0>:
    e716:	0f 4c       	mov	r12,	r15	;
    e718:	0e 4d       	mov	r13,	r14	;

0000e71a <.LVL14>:
    e71a:	3b 40 d4 e6 	mov	#59092,	r11	;#0xe6d4

0000e71e <.Loc.64.1>:
    e71e:	0c 93       	cmp	#0,	r12	;r3 As==00
    e720:	1a 34       	jge	$+54     	;abs 0xe756

0000e722 <.Loc.66.1>:
    e722:	4c 43       	clr.b	r12		;

0000e724 <.LVL15>:
    e724:	0c 8f       	sub	r15,	r12	;
    e726:	0f 4c       	mov	r12,	r15	;

0000e728 <.LVL16>:
    e728:	0d 93       	cmp	#0,	r13	;r3 As==00
    e72a:	0d 34       	jge	$+28     	;abs 0xe746

0000e72c <.Loc.67.1>:
    e72c:	5a 43       	mov.b	#1,	r10	;r3 As==01

0000e72e <.L21>:
    e72e:	0d 43       	clr	r13		;
    e730:	0d 8e       	sub	r14,	r13	;

0000e732 <.LVL18>:
    e732:	4e 43       	clr.b	r14		;

0000e734 <.LVL19>:
    e734:	0c 4f       	mov	r15,	r12	;

0000e736 <.LVL20>:
    e736:	8b 12       	call	r11		;

0000e738 <.LVL21>:
    e738:	1a 93       	cmp	#1,	r10	;r3 As==01
    e73a:	03 24       	jz	$+8      	;abs 0xe742

0000e73c <.L20>:
    e73c:	4d 43       	clr.b	r13		;
    e73e:	0d 8c       	sub	r12,	r13	;
    e740:	0c 4d       	mov	r13,	r12	;

0000e742 <.L16>:
    e742:	3a 41       	pop	r10		;
    e744:	30 41       	ret			

0000e746 <.L18>:
    e746:	4e 43       	clr.b	r14		;
    e748:	8b 12       	call	r11		;

0000e74a <.LVL25>:
    e74a:	30 40 3c e7 	br	#0xe73c		;

0000e74e <.L27>:
    e74e:	4e 43       	clr.b	r14		;
    e750:	8b 12       	call	r11		;

0000e752 <.LVL27>:
    e752:	30 40 42 e7 	br	#0xe742		;

0000e756 <.L17>:
    e756:	0d 93       	cmp	#0,	r13	;r3 As==00
    e758:	fa 37       	jge	$-10     	;abs 0xe74e

0000e75a <.Loc.61.1>:
    e75a:	4a 43       	clr.b	r10		;
    e75c:	30 40 2e e7 	br	#0xe72e		;

0000e760 <__mspabi_remi>:
    e760:	0a 12       	push	r10		;

0000e762 <.LCFI1>:
    e762:	0c 93       	cmp	#0,	r12	;r3 As==00
    e764:	13 34       	jge	$+40     	;abs 0xe78c

0000e766 <.Loc.92.1>:
    e766:	4e 43       	clr.b	r14		;
    e768:	0e 8c       	sub	r12,	r14	;
    e76a:	0c 4e       	mov	r14,	r12	;

0000e76c <.LVL31>:
    e76c:	5a 43       	mov.b	#1,	r10	;r3 As==01

0000e76e <.L29>:
    e76e:	0d 93       	cmp	#0,	r13	;r3 As==00
    e770:	03 34       	jge	$+8      	;abs 0xe778
    e772:	4e 43       	clr.b	r14		;
    e774:	0e 8d       	sub	r13,	r14	;
    e776:	0d 4e       	mov	r14,	r13	;

0000e778 <.L30>:
    e778:	5e 43       	mov.b	#1,	r14	;r3 As==01
    e77a:	b0 12 d4 e6 	call	#59092		;#0xe6d4

0000e77e <.LVL34>:
    e77e:	0a 93       	cmp	#0,	r10	;r3 As==00
    e780:	03 24       	jz	$+8      	;abs 0xe788

0000e782 <.LVL35>:
    e782:	4d 43       	clr.b	r13		;
    e784:	0d 8c       	sub	r12,	r13	;
    e786:	0c 4d       	mov	r13,	r12	;

0000e788 <.L28>:
    e788:	3a 41       	pop	r10		;
    e78a:	30 41       	ret			

0000e78c <.L32>:
    e78c:	4a 43       	clr.b	r10		;
    e78e:	30 40 6e e7 	br	#0xe76e		;

0000e792 <__mspabi_divu>:
    e792:	4e 43       	clr.b	r14		;
    e794:	b0 12 d4 e6 	call	#59092		;#0xe6d4

0000e798 <.LVL39>:
    e798:	30 41       	ret			

0000e79a <__mspabi_remu>:
    e79a:	5e 43       	mov.b	#1,	r14	;r3 As==01
    e79c:	b0 12 d4 e6 	call	#59092		;#0xe6d4

0000e7a0 <.LVL41>:
    e7a0:	30 41       	ret			

0000e7a2 <__mspabi_func_epilog_7>:
    e7a2:	34 41       	pop	r4		;

0000e7a4 <__mspabi_func_epilog_6>:
    e7a4:	35 41       	pop	r5		;

0000e7a6 <__mspabi_func_epilog_5>:
    e7a6:	36 41       	pop	r6		;

0000e7a8 <__mspabi_func_epilog_4>:
    e7a8:	37 41       	pop	r7		;

0000e7aa <__mspabi_func_epilog_3>:
    e7aa:	38 41       	pop	r8		;

0000e7ac <__mspabi_func_epilog_2>:
    e7ac:	39 41       	pop	r9		;

0000e7ae <__mspabi_func_epilog_1>:
    e7ae:	3a 41       	pop	r10		;
    e7b0:	30 41       	ret			

0000e7b2 <__mspabi_srai_15>:
    e7b2:	0c 11       	rra	r12		;

0000e7b4 <__mspabi_srai_14>:
    e7b4:	0c 11       	rra	r12		;

0000e7b6 <__mspabi_srai_13>:
    e7b6:	0c 11       	rra	r12		;

0000e7b8 <__mspabi_srai_12>:
    e7b8:	0c 11       	rra	r12		;

0000e7ba <__mspabi_srai_11>:
    e7ba:	0c 11       	rra	r12		;

0000e7bc <__mspabi_srai_10>:
    e7bc:	0c 11       	rra	r12		;

0000e7be <__mspabi_srai_9>:
    e7be:	0c 11       	rra	r12		;

0000e7c0 <__mspabi_srai_8>:
    e7c0:	0c 11       	rra	r12		;

0000e7c2 <__mspabi_srai_7>:
    e7c2:	0c 11       	rra	r12		;

0000e7c4 <__mspabi_srai_6>:
    e7c4:	0c 11       	rra	r12		;

0000e7c6 <__mspabi_srai_5>:
    e7c6:	0c 11       	rra	r12		;

0000e7c8 <__mspabi_srai_4>:
    e7c8:	0c 11       	rra	r12		;

0000e7ca <__mspabi_srai_3>:
    e7ca:	0c 11       	rra	r12		;

0000e7cc <__mspabi_srai_2>:
    e7cc:	0c 11       	rra	r12		;

0000e7ce <__mspabi_srai_1>:
    e7ce:	0c 11       	rra	r12		;
    e7d0:	30 41       	ret			

0000e7d2 <.L11>:
    e7d2:	3d 53       	add	#-1,	r13	;r3 As==11
    e7d4:	0c 11       	rra	r12		;

0000e7d6 <__mspabi_srai>:
    e7d6:	0d 93       	cmp	#0,	r13	;r3 As==00
    e7d8:	fc 23       	jnz	$-6      	;abs 0xe7d2
    e7da:	30 41       	ret			

0000e7dc <__mspabi_sral_15>:
    e7dc:	0d 11       	rra	r13		;
    e7de:	0c 10       	rrc	r12		;

0000e7e0 <__mspabi_sral_14>:
    e7e0:	0d 11       	rra	r13		;
    e7e2:	0c 10       	rrc	r12		;

0000e7e4 <__mspabi_sral_13>:
    e7e4:	0d 11       	rra	r13		;
    e7e6:	0c 10       	rrc	r12		;

0000e7e8 <__mspabi_sral_12>:
    e7e8:	0d 11       	rra	r13		;
    e7ea:	0c 10       	rrc	r12		;

0000e7ec <__mspabi_sral_11>:
    e7ec:	0d 11       	rra	r13		;
    e7ee:	0c 10       	rrc	r12		;

0000e7f0 <__mspabi_sral_10>:
    e7f0:	0d 11       	rra	r13		;
    e7f2:	0c 10       	rrc	r12		;

0000e7f4 <__mspabi_sral_9>:
    e7f4:	0d 11       	rra	r13		;
    e7f6:	0c 10       	rrc	r12		;

0000e7f8 <__mspabi_sral_8>:
    e7f8:	0d 11       	rra	r13		;
    e7fa:	0c 10       	rrc	r12		;

0000e7fc <__mspabi_sral_7>:
    e7fc:	0d 11       	rra	r13		;
    e7fe:	0c 10       	rrc	r12		;

0000e800 <__mspabi_sral_6>:
    e800:	0d 11       	rra	r13		;
    e802:	0c 10       	rrc	r12		;

0000e804 <__mspabi_sral_5>:
    e804:	0d 11       	rra	r13		;
    e806:	0c 10       	rrc	r12		;

0000e808 <__mspabi_sral_4>:
    e808:	0d 11       	rra	r13		;
    e80a:	0c 10       	rrc	r12		;

0000e80c <__mspabi_sral_3>:
    e80c:	0d 11       	rra	r13		;
    e80e:	0c 10       	rrc	r12		;

0000e810 <__mspabi_sral_2>:
    e810:	0d 11       	rra	r13		;
    e812:	0c 10       	rrc	r12		;

0000e814 <__mspabi_sral_1>:
    e814:	0d 11       	rra	r13		;
    e816:	0c 10       	rrc	r12		;
    e818:	30 41       	ret			

0000e81a <.L12>:
    e81a:	3e 53       	add	#-1,	r14	;r3 As==11
    e81c:	0d 11       	rra	r13		;
    e81e:	0c 10       	rrc	r12		;

0000e820 <__mspabi_sral>:
    e820:	0e 93       	cmp	#0,	r14	;r3 As==00
    e822:	fb 23       	jnz	$-8      	;abs 0xe81a
    e824:	30 41       	ret			

0000e826 <__mspabi_srli_15>:
    e826:	12 c3       	clrc			
    e828:	0c 10       	rrc	r12		;

0000e82a <__mspabi_srli_14>:
    e82a:	12 c3       	clrc			
    e82c:	0c 10       	rrc	r12		;

0000e82e <__mspabi_srli_13>:
    e82e:	12 c3       	clrc			
    e830:	0c 10       	rrc	r12		;

0000e832 <__mspabi_srli_12>:
    e832:	12 c3       	clrc			
    e834:	0c 10       	rrc	r12		;

0000e836 <__mspabi_srli_11>:
    e836:	12 c3       	clrc			
    e838:	0c 10       	rrc	r12		;

0000e83a <__mspabi_srli_10>:
    e83a:	12 c3       	clrc			
    e83c:	0c 10       	rrc	r12		;

0000e83e <__mspabi_srli_9>:
    e83e:	12 c3       	clrc			
    e840:	0c 10       	rrc	r12		;

0000e842 <__mspabi_srli_8>:
    e842:	12 c3       	clrc			
    e844:	0c 10       	rrc	r12		;

0000e846 <__mspabi_srli_7>:
    e846:	12 c3       	clrc			
    e848:	0c 10       	rrc	r12		;

0000e84a <__mspabi_srli_6>:
    e84a:	12 c3       	clrc			
    e84c:	0c 10       	rrc	r12		;

0000e84e <__mspabi_srli_5>:
    e84e:	12 c3       	clrc			
    e850:	0c 10       	rrc	r12		;

0000e852 <__mspabi_srli_4>:
    e852:	12 c3       	clrc			
    e854:	0c 10       	rrc	r12		;

0000e856 <__mspabi_srli_3>:
    e856:	12 c3       	clrc			
    e858:	0c 10       	rrc	r12		;

0000e85a <__mspabi_srli_2>:
    e85a:	12 c3       	clrc			
    e85c:	0c 10       	rrc	r12		;

0000e85e <__mspabi_srli_1>:
    e85e:	12 c3       	clrc			
    e860:	0c 10       	rrc	r12		;
    e862:	30 41       	ret			

0000e864 <.L11>:
    e864:	3d 53       	add	#-1,	r13	;r3 As==11
    e866:	12 c3       	clrc			
    e868:	0c 10       	rrc	r12		;

0000e86a <__mspabi_srli>:
    e86a:	0d 93       	cmp	#0,	r13	;r3 As==00
    e86c:	fb 23       	jnz	$-8      	;abs 0xe864
    e86e:	30 41       	ret			

0000e870 <__mspabi_srll_15>:
    e870:	12 c3       	clrc			
    e872:	0d 10       	rrc	r13		;
    e874:	0c 10       	rrc	r12		;

0000e876 <__mspabi_srll_14>:
    e876:	12 c3       	clrc			
    e878:	0d 10       	rrc	r13		;
    e87a:	0c 10       	rrc	r12		;

0000e87c <__mspabi_srll_13>:
    e87c:	12 c3       	clrc			
    e87e:	0d 10       	rrc	r13		;
    e880:	0c 10       	rrc	r12		;

0000e882 <__mspabi_srll_12>:
    e882:	12 c3       	clrc			
    e884:	0d 10       	rrc	r13		;
    e886:	0c 10       	rrc	r12		;

0000e888 <__mspabi_srll_11>:
    e888:	12 c3       	clrc			
    e88a:	0d 10       	rrc	r13		;
    e88c:	0c 10       	rrc	r12		;

0000e88e <__mspabi_srll_10>:
    e88e:	12 c3       	clrc			
    e890:	0d 10       	rrc	r13		;
    e892:	0c 10       	rrc	r12		;

0000e894 <__mspabi_srll_9>:
    e894:	12 c3       	clrc			
    e896:	0d 10       	rrc	r13		;
    e898:	0c 10       	rrc	r12		;

0000e89a <__mspabi_srll_8>:
    e89a:	12 c3       	clrc			
    e89c:	0d 10       	rrc	r13		;
    e89e:	0c 10       	rrc	r12		;

0000e8a0 <__mspabi_srll_7>:
    e8a0:	12 c3       	clrc			
    e8a2:	0d 10       	rrc	r13		;
    e8a4:	0c 10       	rrc	r12		;

0000e8a6 <__mspabi_srll_6>:
    e8a6:	12 c3       	clrc			
    e8a8:	0d 10       	rrc	r13		;
    e8aa:	0c 10       	rrc	r12		;

0000e8ac <__mspabi_srll_5>:
    e8ac:	12 c3       	clrc			
    e8ae:	0d 10       	rrc	r13		;
    e8b0:	0c 10       	rrc	r12		;

0000e8b2 <__mspabi_srll_4>:
    e8b2:	12 c3       	clrc			
    e8b4:	0d 10       	rrc	r13		;
    e8b6:	0c 10       	rrc	r12		;

0000e8b8 <__mspabi_srll_3>:
    e8b8:	12 c3       	clrc			
    e8ba:	0d 10       	rrc	r13		;
    e8bc:	0c 10       	rrc	r12		;

0000e8be <__mspabi_srll_2>:
    e8be:	12 c3       	clrc			
    e8c0:	0d 10       	rrc	r13		;
    e8c2:	0c 10       	rrc	r12		;

0000e8c4 <__mspabi_srll_1>:
    e8c4:	12 c3       	clrc			
    e8c6:	0d 10       	rrc	r13		;
    e8c8:	0c 10       	rrc	r12		;
    e8ca:	30 41       	ret			

0000e8cc <.L12>:
    e8cc:	3e 53       	add	#-1,	r14	;r3 As==11
    e8ce:	12 c3       	clrc			
    e8d0:	0d 10       	rrc	r13		;
    e8d2:	0c 10       	rrc	r12		;

0000e8d4 <__mspabi_srll>:
    e8d4:	0e 93       	cmp	#0,	r14	;r3 As==00
    e8d6:	fa 23       	jnz	$-10     	;abs 0xe8cc
    e8d8:	30 41       	ret			

0000e8da <memcpy>:
    e8da:	0f 4c       	mov	r12,	r15	;
    e8dc:	0e 5c       	add	r12,	r14	;

0000e8de <.L2>:
    e8de:	0f 9e       	cmp	r14,	r15	;
    e8e0:	01 20       	jnz	$+4      	;abs 0xe8e4

0000e8e2 <.Loc.111.1>:
    e8e2:	30 41       	ret			

0000e8e4 <.L3>:
    e8e4:	ef 4d 00 00 	mov.b	@r13,	0(r15)	;
    e8e8:	1f 53       	inc	r15		;

0000e8ea <.LVL4>:
    e8ea:	1d 53       	inc	r13		;
    e8ec:	30 40 de e8 	br	#0xe8de		;

0000e8f0 <memmove>:
    e8f0:	0d 9c       	cmp	r12,	r13	;
    e8f2:	0a 28       	jnc	$+22     	;abs 0xe908

0000e8f4 <.L5>:
    e8f4:	0f 4c       	mov	r12,	r15	;
    e8f6:	0e 5c       	add	r12,	r14	;

0000e8f8 <.L3>:
    e8f8:	0e 9f       	cmp	r15,	r14	;
    e8fa:	0d 24       	jz	$+28     	;abs 0xe916

0000e8fc <.LVL3>:
    e8fc:	ef 4d 00 00 	mov.b	@r13,	0(r15)	;
    e900:	1f 53       	inc	r15		;

0000e902 <.LVL4>:
    e902:	1d 53       	inc	r13		;
    e904:	30 40 f8 e8 	br	#0xe8f8		;

0000e908 <.L2>:
    e908:	0f 4d       	mov	r13,	r15	;
    e90a:	0f 5e       	add	r14,	r15	;
    e90c:	0c 9f       	cmp	r15,	r12	;
    e90e:	f2 2f       	jc	$-26     	;abs 0xe8f4

0000e910 <.L4>:
    e910:	3e 53       	add	#-1,	r14	;r3 As==11

0000e912 <.LVL7>:
    e912:	3e 93       	cmp	#-1,	r14	;r3 As==11
    e914:	01 20       	jnz	$+4      	;abs 0xe918

0000e916 <.L10>:
    e916:	30 41       	ret			

0000e918 <.L6>:
    e918:	0b 4c       	mov	r12,	r11	;
    e91a:	0b 5e       	add	r14,	r11	;
    e91c:	0f 4d       	mov	r13,	r15	;
    e91e:	0f 5e       	add	r14,	r15	;
    e920:	eb 4f 00 00 	mov.b	@r15,	0(r11)	;
    e924:	30 40 10 e9 	br	#0xe910		;

0000e928 <memset>:
    e928:	0f 4c       	mov	r12,	r15	;
    e92a:	0e 5c       	add	r12,	r14	;

0000e92c <.L2>:
    e92c:	0f 9e       	cmp	r14,	r15	;
    e92e:	01 20       	jnz	$+4      	;abs 0xe932

0000e930 <.Loc.104.1>:
    e930:	30 41       	ret			

0000e932 <.L3>:
    e932:	cf 4d 00 00 	mov.b	r13,	0(r15)	;
    e936:	1f 53       	inc	r15		;

0000e938 <.LVL4>:
    e938:	30 40 2c e9 	br	#0xe92c		;

0000e93c <L0>:
    e93c:	30 41       	ret			

0000e93e <__do_global_ctors_aux>:
    e93e:	0a 12       	push	r10		;
    e940:	3a 40 68 e0 	mov	#57448,	r10	;#0xe068

0000e944 <.L2>:
    e944:	2c 4a       	mov	@r10,	r12	;
    e946:	3c 93       	cmp	#-1,	r12	;r3 As==11
    e948:	02 20       	jnz	$+6      	;abs 0xe94e
    e94a:	3a 41       	pop	r10		;
    e94c:	30 41       	ret			

0000e94e <.L3>:
    e94e:	8c 12       	call	r12		;
    e950:	3a 50 fe ff 	add	#65534,	r10	;#0xfffe
    e954:	30 40 44 e9 	br	#0xe944		;

0000e958 <call___do_global_ctors_aux>:
    e958:	b0 12 76 e1 	call	#57718		;#0xe176
    e95c:	b0 12 3e e9 	call	#59710		;#0xe93e

0000e960 <L0>:
    e960:	b0 12 ae e0 	call	#57518		;#0xe0ae

0000e964 <.Loc.19.1>:
    e964:	b0 12 a0 e0 	call	#57504		;#0xe0a0

0000e968 <.Loc.20.1>:
    e968:	30 41       	ret			

0000e96a <__msp430_fini>:
    e96a:	b0 12 bc e0 	call	#57532		;#0xe0bc

0000e96e <L0>:
    e96e:	b0 12 28 e1 	call	#57640		;#0xe128

0000e972 <L0>:
    e972:	30 41       	ret			

Disassembly of section .data:

00000200 <__datastart>:
	...

00000202 <hex>:
 202:	30 31       	jn	$+610    	;abs 0x464
 204:	32 33       	jn	$-410    	;abs 0x6a
 206:	34 35       	jge	$+618    	;abs 0x470
 208:	36 37       	jge	$-402    	;abs 0x76
 20a:	38 39       	jl	$+626    	;abs 0x47c
 20c:	61 62       	addc.b	#4,	r1	;r2 As==10
 20e:	63 64       	.word	0x6463;	????
 210:	65 66       	addc.b	@r6,	r5	;
	...

Disassembly of section .bss:

00000214 <__bssstart>:
	...

00000216 <dtor_idx.3058>:
	...

00000218 <object.3071>:
	...

Disassembly of section .MP430.attributes:

00000000 <.MP430.attributes>:
   0:	41 16       	popm.a	#5,	r5	;20-bit words
   2:	00 00       	beq			
   4:	00 6d       	addc	r13,	r0	;
   6:	73 70       	.word	0x7073;	????
   8:	61 62       	addc.b	#4,	r1	;r2 As==10
   a:	69 00 01 0b 	mova	r0,	&592641	; 0x90b01
   e:	00 00       	beq			
  10:	00 04       	bra	@r4		;
  12:	01 06       	mova	@r6,	r1	;
  14:	01 08       	mova	@r8,	r1	;
  16:	01 41       	mov	r1,	r1	;
  18:	16 00       	mova	@r0+,	r6	;
  1a:	00 00       	beq			
  1c:	6d 73       	subc.b	#2,	r13	;r3 As==10
  1e:	70 61       	addc.b	@r1+,	r0	;
  20:	62 69       	addc.b	@r9,	r2	;
  22:	00 01       	bra	@r1		;
  24:	0b 00       	mova	@r0,	r11	;
  26:	00 00       	beq			
  28:	04 01       	mova	@r1,	r4	;
  2a:	06 01       	mova	@r1,	r6	;
  2c:	08 01       	mova	@r1,	r8	;
  2e:	41 16       	popm.a	#5,	r5	;20-bit words
  30:	00 00       	beq			
  32:	00 6d       	addc	r13,	r0	;
  34:	73 70       	.word	0x7073;	????
  36:	61 62       	addc.b	#4,	r1	;r2 As==10
  38:	69 00 01 0b 	mova	r0,	&592641	; 0x90b01
  3c:	00 00       	beq			
  3e:	00 04       	bra	@r4		;
  40:	01 06       	mova	@r6,	r1	;
  42:	01 08       	mova	@r8,	r1	;
  44:	01 41       	mov	r1,	r1	;
  46:	16 00       	mova	@r0+,	r6	;
  48:	00 00       	beq			
  4a:	6d 73       	subc.b	#2,	r13	;r3 As==10
  4c:	70 61       	addc.b	@r1+,	r0	;
  4e:	62 69       	addc.b	@r9,	r2	;
  50:	00 01       	bra	@r1		;
  52:	0b 00       	mova	@r0,	r11	;
  54:	00 00       	beq			
  56:	04 01       	mova	@r1,	r4	;
  58:	06 01       	mova	@r1,	r6	;
  5a:	08 01       	mova	@r1,	r8	;
  5c:	41 16       	popm.a	#5,	r5	;20-bit words
  5e:	00 00       	beq			
  60:	00 6d       	addc	r13,	r0	;
  62:	73 70       	.word	0x7073;	????
  64:	61 62       	addc.b	#4,	r1	;r2 As==10
  66:	69 00 01 0b 	mova	r0,	&592641	; 0x90b01
  6a:	00 00       	beq			
  6c:	00 04       	bra	@r4		;
  6e:	01 06       	mova	@r6,	r1	;
  70:	01 08       	mova	@r8,	r1	;
  72:	01 41       	mov	r1,	r1	;
  74:	16 00       	mova	@r0+,	r6	;
  76:	00 00       	beq			
  78:	6d 73       	subc.b	#2,	r13	;r3 As==10
  7a:	70 61       	addc.b	@r1+,	r0	;
  7c:	62 69       	addc.b	@r9,	r2	;
  7e:	00 01       	bra	@r1		;
  80:	0b 00       	mova	@r0,	r11	;
  82:	00 00       	beq			
  84:	04 01       	mova	@r1,	r4	;
  86:	06 01       	mova	@r1,	r6	;
  88:	08 01       	mova	@r1,	r8	;
  8a:	41 16       	popm.a	#5,	r5	;20-bit words
  8c:	00 00       	beq			
  8e:	00 6d       	addc	r13,	r0	;
  90:	73 70       	.word	0x7073;	????
  92:	61 62       	addc.b	#4,	r1	;r2 As==10
  94:	69 00 01 0b 	mova	r0,	&592641	; 0x90b01
  98:	00 00       	beq			
  9a:	00 04       	bra	@r4		;
  9c:	01 06       	mova	@r6,	r1	;
  9e:	01 08       	mova	@r8,	r1	;
  a0:	01 41       	mov	r1,	r1	;
  a2:	16 00       	mova	@r0+,	r6	;
  a4:	00 00       	beq			
  a6:	6d 73       	subc.b	#2,	r13	;r3 As==10
  a8:	70 61       	addc.b	@r1+,	r0	;
  aa:	62 69       	addc.b	@r9,	r2	;
  ac:	00 01       	bra	@r1		;
  ae:	0b 00       	mova	@r0,	r11	;
  b0:	00 00       	beq			
  b2:	04 01       	mova	@r1,	r4	;
  b4:	06 01       	mova	@r1,	r6	;
  b6:	08 01       	mova	@r1,	r8	;
  b8:	41 16       	popm.a	#5,	r5	;20-bit words
  ba:	00 00       	beq			
  bc:	00 6d       	addc	r13,	r0	;
  be:	73 70       	.word	0x7073;	????
  c0:	61 62       	addc.b	#4,	r1	;r2 As==10
  c2:	69 00 01 0b 	mova	r0,	&592641	; 0x90b01
  c6:	00 00       	beq			
  c8:	00 04       	bra	@r4		;
  ca:	01 06       	mova	@r6,	r1	;
  cc:	01 08       	mova	@r8,	r1	;
  ce:	01 41       	mov	r1,	r1	;
  d0:	16 00       	mova	@r0+,	r6	;
  d2:	00 00       	beq			
  d4:	6d 73       	subc.b	#2,	r13	;r3 As==10
  d6:	70 61       	addc.b	@r1+,	r0	;
  d8:	62 69       	addc.b	@r9,	r2	;
  da:	00 01       	bra	@r1		;
  dc:	0b 00       	mova	@r0,	r11	;
  de:	00 00       	beq			
  e0:	04 01       	mova	@r1,	r4	;
  e2:	06 01       	mova	@r1,	r6	;
  e4:	08 01       	mova	@r1,	r8	;
  e6:	41 16       	popm.a	#5,	r5	;20-bit words
  e8:	00 00       	beq			
  ea:	00 6d       	addc	r13,	r0	;
  ec:	73 70       	.word	0x7073;	????
  ee:	61 62       	addc.b	#4,	r1	;r2 As==10
  f0:	69 00 01 0b 	mova	r0,	&592641	; 0x90b01
  f4:	00 00       	beq			
  f6:	00 04       	bra	@r4		;
  f8:	01 06       	mova	@r6,	r1	;
  fa:	01 08       	mova	@r8,	r1	;
  fc:	01 41       	mov	r1,	r1	;
  fe:	16 00       	mova	@r0+,	r6	;
 100:	00 00       	beq			
 102:	6d 73       	subc.b	#2,	r13	;r3 As==10
 104:	70 61       	addc.b	@r1+,	r0	;
 106:	62 69       	addc.b	@r9,	r2	;
 108:	00 01       	bra	@r1		;
 10a:	0b 00       	mova	@r0,	r11	;
 10c:	00 00       	beq			
 10e:	04 01       	mova	@r1,	r4	;
 110:	06 01       	mova	@r1,	r6	;
 112:	08 01       	mova	@r1,	r8	;
 114:	41 16       	popm.a	#5,	r5	;20-bit words
 116:	00 00       	beq			
 118:	00 6d       	addc	r13,	r0	;
 11a:	73 70       	.word	0x7073;	????
 11c:	61 62       	addc.b	#4,	r1	;r2 As==10
 11e:	69 00 01 0b 	mova	r0,	&592641	; 0x90b01
 122:	00 00       	beq			
 124:	00 04       	bra	@r4		;
 126:	01 06       	mova	@r6,	r1	;
 128:	01 08       	mova	@r8,	r1	;
 12a:	01 41       	mov	r1,	r1	;
 12c:	16 00       	mova	@r0+,	r6	;
 12e:	00 00       	beq			
 130:	6d 73       	subc.b	#2,	r13	;r3 As==10
 132:	70 61       	addc.b	@r1+,	r0	;
 134:	62 69       	addc.b	@r9,	r2	;
 136:	00 01       	bra	@r1		;
 138:	0b 00       	mova	@r0,	r11	;
 13a:	00 00       	beq			
 13c:	04 01       	mova	@r1,	r4	;
 13e:	06 01       	mova	@r1,	r6	;
 140:	08 01       	mova	@r1,	r8	;
 142:	41 16       	popm.a	#5,	r5	;20-bit words
 144:	00 00       	beq			
 146:	00 6d       	addc	r13,	r0	;
 148:	73 70       	.word	0x7073;	????
 14a:	61 62       	addc.b	#4,	r1	;r2 As==10
 14c:	69 00 01 0b 	mova	r0,	&592641	; 0x90b01
 150:	00 00       	beq			
 152:	00 04       	bra	@r4		;
 154:	01 06       	mova	@r6,	r1	;
 156:	01 08       	mova	@r8,	r1	;
 158:	01 41       	mov	r1,	r1	;
 15a:	16 00       	mova	@r0+,	r6	;
 15c:	00 00       	beq			
 15e:	6d 73       	subc.b	#2,	r13	;r3 As==10
 160:	70 61       	addc.b	@r1+,	r0	;
 162:	62 69       	addc.b	@r9,	r2	;
 164:	00 01       	bra	@r1		;
 166:	0b 00       	mova	@r0,	r11	;
 168:	00 00       	beq			
 16a:	04 01       	mova	@r1,	r4	;
 16c:	06 01       	mova	@r1,	r6	;
 16e:	08 01       	mova	@r1,	r8	;
 170:	41 16       	popm.a	#5,	r5	;20-bit words
 172:	00 00       	beq			
 174:	00 6d       	addc	r13,	r0	;
 176:	73 70       	.word	0x7073;	????
 178:	61 62       	addc.b	#4,	r1	;r2 As==10
 17a:	69 00 01 0b 	mova	r0,	&592641	; 0x90b01
 17e:	00 00       	beq			
 180:	00 04       	bra	@r4		;
 182:	01 06       	mova	@r6,	r1	;
 184:	01 08       	mova	@r8,	r1	;
 186:	01 5c       	Address 0x0000000000000186 is out of bounds.
.word	0xffff;	????

Disassembly of section .comment:

00000000 <.comment>:
   0:	47 43       	clr.b	r7		;
   2:	43 3a       	jl	$-888    	;abs 0xfffffffffffffc8a
   4:	20 28       	jnc	$+66     	;abs 0x46
   6:	4d 69       	addc.b	r9,	r13	;
   8:	74 74       	subc.b	@r4+,	r4	;
   a:	6f 20       	jnz	$+224    	;abs 0xea
   c:	53 79       	.word	0x7953;	????
   e:	73 74       	.word	0x7473;	????
  10:	65 6d       	addc.b	@r13,	r5	;
  12:	73 20       	jnz	$+232    	;abs 0xfa
  14:	4c 69       	addc.b	r9,	r12	;
  16:	6d 69       	addc.b	@r9,	r13	;
  18:	74 65       	addc.b	@r5+,	r4	;
  1a:	64 20       	jnz	$+202    	;abs 0xe4
  1c:	2d 20       	jnz	$+92     	;abs 0x78
  1e:	6d 73       	subc.b	#2,	r13	;r3 As==10
  20:	70 34       	jge	$+226    	;abs 0x102
  22:	33 30       	jn	$+104    	;abs 0x8a
  24:	2d 67       	addc	@r7,	r13	;
  26:	63 63       	.word	0x6363;	????
  28:	20 37       	jge	$-446    	;abs 0xfffffffffffffe6a
  2a:	2e 33       	jn	$-418    	;abs 0xfffffffffffffe88
  2c:	2e 31       	jn	$+606    	;abs 0x28a
  2e:	2e 32       	jn	$-930    	;abs 0xfffffffffffffc8c
  30:	34 29       	jnc	$+618    	;abs 0x29a
  32:	20 37       	jge	$-446    	;abs 0xfffffffffffffe74
  34:	2e 33       	jn	$-418    	;abs 0xfffffffffffffe92
  36:	2e 31       	jn	$+606    	;abs 0x294
	...

Disassembly of section .debug_aranges:

00000000 <.debug_aranges>:
   0:	1c 00       	mova	@r0+,	r12	;
   2:	00 00       	beq			
   4:	02 00       	mova	@r0,	r2	;
   6:	00 00       	beq			
   8:	00 00       	beq			
   a:	04 00       	mova	@r0,	r4	;
   c:	00 00       	beq			
   e:	00 00       	beq			
  10:	8e e1 00 00 	xor	r1,	0(r14)	;
  14:	de 00       	cmpa	r0,	r14	;
	...
  1e:	00 00       	beq			
  20:	1c 00       	mova	@r0+,	r12	;
  22:	00 00       	beq			
  24:	02 00       	mova	@r0,	r2	;
  26:	87 09 00 00 	mova	#-458752,r7	;0xfff90000
  2a:	04 00       	mova	@r0,	r4	;
  2c:	00 00       	beq			
  2e:	00 00       	beq			
  30:	6c e2       	xor.b	#4,	r12	;r2 As==10
  32:	00 00       	beq			
  34:	68 04 00 00 	mova	r4,	&524288	; 0x80000
	...
  40:	24 00 00 00 	mova	&0,	r4	;
  44:	02 00       	mova	@r0,	r2	;
  46:	05 0c       	mova	@r12,	r5	;
  48:	00 00       	beq			
  4a:	04 00       	mova	@r0,	r4	;
  4c:	00 00       	beq			
  4e:	00 00       	beq			
  50:	e0 fa 00 00 	and.b	@r10,	0x0000	; PC rel. 0x0052
  54:	76 02 00 00 	mova	r2,	0(r6)	;
  58:	56 fd 00 00 	and.b	0(r13),	r6	;
  5c:	48 00       	rrcm.a	#1,	r8	;
	...

Disassembly of section .debug_info:

00000000 <.debug_info>:
       0:	83 09 00 00 	mova	#-458752,r3	;0xfff90000
       4:	04 00       	mova	@r0,	r4	;
       6:	00 00       	beq			
       8:	00 00       	beq			
       a:	04 01       	mova	@r1,	r4	;
       c:	31 04 00 00 	mova	0(r4),	r1	;
      10:	0c f4       	and	r4,	r12	;
      12:	01 00       	mova	@r0,	r1	;
      14:	00 26       	.word	0x2600;	????
      16:	02 00       	mova	@r0,	r2	;
      18:	00 8e       	sub	r14,	r0	;
      1a:	e1 00       	adda	r0,	r1	;
      1c:	00 de       	bis	r14,	r0	;
      1e:	00 00       	beq			
      20:	00 00       	beq			
      22:	00 00       	beq			
      24:	00 02       	bra	@r2		;
      26:	02 07       	mova	@r7,	r2	;
      28:	63 00 00 00 	mova	r0,	&196608	; 0x30000
      2c:	02 01       	mova	@r1,	r2	;
      2e:	06 ca       	bic	r10,	r6	;
      30:	02 00       	mova	@r0,	r2	;
      32:	00 02       	bra	@r2		;
      34:	01 08       	mova	@r8,	r1	;
      36:	c8 02       	mova	r2,	r8	;
      38:	00 00       	beq			
      3a:	02 02       	mova	@r2,	r2	;
      3c:	05 dc       	bis	r12,	r5	;
      3e:	02 00       	mova	@r0,	r2	;
      40:	00 02       	bra	@r2		;
      42:	02 07       	mova	@r7,	r2	;
      44:	b1 01 00 00 	suba	#65536,	r1	;0x10000
      48:	02 04       	mova	@r4,	r2	;
      4a:	05 a4       	dadd	r4,	r5	;
      4c:	00 00       	beq			
      4e:	00 02       	bra	@r2		;
      50:	04 07       	mova	@r7,	r4	;
      52:	5e 00       	rrcm	#1,	r14	;
      54:	00 00       	beq			
      56:	02 08       	mova	@r8,	r2	;
      58:	05 9f       	cmp	r15,	r5	;
      5a:	00 00       	beq			
      5c:	00 02       	bra	@r2		;
      5e:	08 07       	mova	@r7,	r8	;
      60:	59 00       	rrcm	#1,	r9	;
      62:	00 00       	beq			
      64:	03 02       	mova	@r2,	r3	;
      66:	05 69       	addc	r9,	r5	;
      68:	6e 74       	subc.b	@r4,	r14	;
      6a:	00 02       	bra	@r2		;
      6c:	08 04       	mova	@r4,	r8	;
      6e:	52 02       	rlam	#1,	r2	;
      70:	00 00       	beq			
      72:	04 b6       	bit	r6,	r4	;
      74:	02 00       	mova	@r0,	r2	;
      76:	00 02       	bra	@r2		;
      78:	07 64       	addc	r4,	r7	;
      7a:	00 00       	beq			
      7c:	00 04       	bra	@r4		;
      7e:	a5 02 00 00 	adda	#131072,r5	;0x20000
      82:	03 10       	rrc	#0		;r3 As==00
      84:	48 00       	rrcm.a	#1,	r8	;
      86:	00 00       	beq			
      88:	04 84       	sub	r4,	r4	;
      8a:	03 00       	mova	@r0,	r3	;
      8c:	00 03       	bra	@r3		;
      8e:	27 48       	mov	@r8,	r7	;
      90:	00 00       	beq			
      92:	00 05       	bra	@r5		;
      94:	fb 01       	suba	r1,	r11	;
      96:	00 00       	beq			
      98:	04 65       	addc	r5,	r4	;
      9a:	01 25       	jz	$+516    	;abs 0x29e
      9c:	00 00       	beq			
      9e:	00 06       	bra	@r6		;
      a0:	04 03       	mova	@r3,	r4	;
      a2:	4a be       	bit.b	r14,	r10	;
      a4:	00 00       	beq			
      a6:	00 07       	bra	@r7		;
      a8:	ee 01       	adda	r1,	r14	;
      aa:	00 00       	beq			
      ac:	03 4c       	.word	0x4c03;	????
      ae:	93 00 00 00 	cmpa	#0,	r3	;
      b2:	07 8e       	sub	r14,	r7	;
      b4:	01 00       	mova	@r0,	r1	;
      b6:	00 03       	bra	@r3		;
      b8:	4d be       	bit.b	r14,	r13	;
      ba:	00 00       	beq			
      bc:	00 00       	beq			
      be:	08 33       	jn	$-494    	;abs 0xfffffffffffffed0
      c0:	00 00       	beq			
      c2:	00 ce       	bic	r14,	r0	;
      c4:	00 00       	beq			
      c6:	00 09       	bra	@r9		;
      c8:	25 00 00 00 	mova	&0,	r5	;
      cc:	03 00       	mova	@r0,	r3	;
      ce:	0a 06       	mova	@r6,	r10	;
      d0:	03 47       	.word	0x4703;	????
      d2:	ef 00       	adda	r0,	r15	;
      d4:	00 00       	beq			
      d6:	0b 64       	addc	r4,	r11	;
      d8:	03 00       	mova	@r0,	r3	;
      da:	00 03       	bra	@r3		;
      dc:	49 64       	addc.b	r4,	r9	;
      de:	00 00       	beq			
      e0:	00 00       	beq			
      e2:	0b 6c       	addc	r12,	r11	;
      e4:	03 00       	mova	@r0,	r3	;
      e6:	00 03       	bra	@r3		;
      e8:	4e 9f       	cmp.b	r15,	r14	;
      ea:	00 00       	beq			
      ec:	00 02       	bra	@r2		;
      ee:	00 04       	bra	@r4		;
      f0:	fe 02       	suba	r2,	r14	;
      f2:	00 00       	beq			
      f4:	03 4f       	.word	0x4f03;	????
      f6:	ce 00       	mova	r0,	r14	;
      f8:	00 00       	beq			
      fa:	04 47       	mov	r7,	r4	;
      fc:	01 00       	mova	@r0,	r1	;
      fe:	00 03       	bra	@r3		;
     100:	53 72       	.word	0x7253;	????
     102:	00 00       	beq			
     104:	00 0c       	bra	@r12		;
     106:	02 04       	mova	@r4,	r2	;
     108:	dc 03       	cmpa	r3,	r12	;
     10a:	00 00       	beq			
     10c:	05 16       	popm.a	#1,	r5	;20-bit words
     10e:	4f 00       	rrcm.a	#1,	r15	;
     110:	00 00       	beq			
     112:	0d 50       	add	r0,	r13	;
     114:	01 00       	mova	@r0,	r1	;
     116:	00 0e       	bra	@r14		;
     118:	05 2d       	jc	$+524    	;abs 0x324
     11a:	65 01 00 00 	mova	r1,	&327680	; 0x50000
     11e:	0b 1f 03 00 	rpt #12 { movax	@r0,	r3	;
     122:	00 05       	bra	@r5		;
     124:	2f 65       	addc	@r5,	r15	;
     126:	01 00       	mova	@r0,	r1	;
     128:	00 00       	beq			
     12a:	0e 5f       	add	r15,	r14	;
     12c:	6b 00 05 30 	mova	r0,	&733189	; 0xb3005
     130:	64 00 00 00 	mova	r0,	&262144	; 0x40000
     134:	02 0b       	mova	@r11,	r2	;
     136:	56 03       	rrum	#1,	r6	;
     138:	00 00       	beq			
     13a:	05 30       	jn	$+12     	;abs 0x146
     13c:	64 00 00 00 	mova	r0,	&262144	; 0x40000
     140:	04 0b       	mova	@r11,	r4	;
     142:	41 01       	rram.a	#1,	r1	;
     144:	00 00       	beq			
     146:	05 30       	jn	$+12     	;abs 0x152
     148:	64 00 00 00 	mova	r0,	&262144	; 0x40000
     14c:	06 0b       	mova	@r11,	r6	;
     14e:	1c 04       	mova	@r4+,	r12	;
     150:	00 00       	beq			
     152:	05 30       	jn	$+12     	;abs 0x15e
     154:	64 00 00 00 	mova	r0,	&262144	; 0x40000
     158:	08 0e       	mova	@r14,	r8	;
     15a:	5f 78 00 05 	subc.b	1280(r8),r15	;0x00500
     15e:	31 6b       	addc	@r11+,	r1	;
     160:	01 00       	mova	@r0,	r1	;
     162:	00 0a       	bra	@r10		;
     164:	00 0f       	bra	@r15		;
     166:	02 12       	push	r2		;
     168:	01 00       	mova	@r0,	r1	;
     16a:	00 08       	bra	@r8		;
     16c:	07 01       	mova	@r1,	r7	;
     16e:	00 00       	beq			
     170:	7b 01 00 00 	mova	r1,	0(r11)	;
     174:	09 25       	jz	$+532    	;abs 0x388
     176:	00 00       	beq			
     178:	00 00       	beq			
     17a:	00 0d       	bra	@r13		;
     17c:	77 01 00 00 	mova	r1,	0(r7)	;
     180:	12 05       	mova	@r5+,	r2	;
     182:	35 f4       	and	@r4+,	r5	;
     184:	01 00       	mova	@r0,	r1	;
     186:	00 0b       	bra	@r11		;
     188:	96 00 00 00 	cmpa	#0,	r6	;
     18c:	05 37       	jge	$-500    	;abs 0xffffffffffffff98
     18e:	64 00 00 00 	mova	r0,	&262144	; 0x40000
     192:	00 0b       	bra	@r11		;
     194:	9a 03 00 00 	cmpa	#196608,r10	;0x30000
     198:	05 38       	jl	$+12     	;abs 0x1a4
     19a:	64 00 00 00 	mova	r0,	&262144	; 0x40000
     19e:	02 0b       	mova	@r11,	r2	;
     1a0:	b9 00 00 00 	suba	#0,	r9	;
     1a4:	05 39       	jl	$+524    	;abs 0x3b0
     1a6:	64 00 00 00 	mova	r0,	&262144	; 0x40000
     1aa:	04 0b       	mova	@r11,	r4	;
     1ac:	f3 04       	suba	r4,	r3	;
     1ae:	00 00       	beq			
     1b0:	05 3a       	jl	$-1012   	;abs 0xfffffffffffffdbc
     1b2:	64 00 00 00 	mova	r0,	&262144	; 0x40000
     1b6:	06 0b       	mova	@r11,	r6	;
     1b8:	7f 02 00 00 	mova	r2,	0(r15)	;
     1bc:	05 3b       	jl	$-500    	;abs 0xffffffffffffffc8
     1be:	64 00 00 00 	mova	r0,	&262144	; 0x40000
     1c2:	08 0b       	mova	@r11,	r8	;
     1c4:	1c 02       	mova	@r2+,	r12	;
     1c6:	00 00       	beq			
     1c8:	05 3c       	jmp	$+12     	;abs 0x1d4
     1ca:	64 00 00 00 	mova	r0,	&262144	; 0x40000
     1ce:	0a 0b       	mova	@r11,	r10	;
     1d0:	21 04 00 00 	mova	&262144,r1	;0x40000
     1d4:	05 3d       	jmp	$+524    	;abs 0x3e0
     1d6:	64 00 00 00 	mova	r0,	&262144	; 0x40000
     1da:	0c 0b       	mova	@r11,	r12	;
     1dc:	e6 02       	adda	r2,	r6	;
     1de:	00 00       	beq			
     1e0:	05 3e       	jmp	$-1012   	;abs 0xfffffffffffffdec
     1e2:	64 00 00 00 	mova	r0,	&262144	; 0x40000
     1e6:	0e 0b       	mova	@r11,	r14	;
     1e8:	a4 04 00 00 	adda	#262144,r4	;0x40000
     1ec:	05 3f       	jmp	$-500    	;abs 0xfffffffffffffff8
     1ee:	64 00 00 00 	mova	r0,	&262144	; 0x40000
     1f2:	10 00       	bra	@r0+		;
     1f4:	0d c8       	bic	r8,	r13	;
     1f6:	00 00       	beq			
     1f8:	00 88       	sub	r8,	r0	;
     1fa:	05 48       	mov	r8,	r5	;
     1fc:	31 02 00 00 	mova	0(r2),	r1	;
     200:	0b 34       	jge	$+24     	;abs 0x218
     202:	01 00       	mova	@r0,	r1	;
     204:	00 05       	bra	@r5		;
     206:	49 31       	jn	$+660    	;abs 0x49a
     208:	02 00       	mova	@r0,	r2	;
     20a:	00 00       	beq			
     20c:	0b 00       	mova	@r0,	r11	;
     20e:	00 00       	beq			
     210:	00 05       	bra	@r5		;
     212:	4a 31       	jn	$+662    	;abs 0x4a8
     214:	02 00       	mova	@r0,	r2	;
     216:	00 40       	br	r0		;
     218:	0b c2       	bic	r2,	r11	;
     21a:	03 00       	mova	@r0,	r3	;
     21c:	00 05       	bra	@r5		;
     21e:	4c 07       	rrum.a	#2,	r12	;
     220:	01 00       	mova	@r0,	r1	;
     222:	00 80       	sub	r0,	r0	;
     224:	0b f4       	and	r4,	r11	;
     226:	00 00       	beq			
     228:	00 05       	bra	@r5		;
     22a:	4f 07       	rrum.a	#2,	r15	;
     22c:	01 00       	mova	@r0,	r1	;
     22e:	00 84       	sub	r4,	r0	;
     230:	00 08       	bra	@r8		;
     232:	05 01       	mova	@r1,	r5	;
     234:	00 00       	beq			
     236:	41 02       	rlam.a	#1,	r1	;
     238:	00 00       	beq			
     23a:	09 25       	jz	$+532    	;abs 0x44e
     23c:	00 00       	beq			
     23e:	00 1f 00 0d 	brax	@r13		;
     242:	88 02 00 00 	mova	#131072,r8	;0x20000
     246:	46 05       	rram.a	#2,	r6	;
     248:	53 7e       	.word	0x7e53;	????
     24a:	02 00       	mova	@r0,	r2	;
     24c:	00 0b       	bra	@r11		;
     24e:	1f 03       	mova	@r3+,	r15	;
     250:	00 00       	beq			
     252:	05 54       	add	r4,	r5	;
     254:	7e 02 00 00 	mova	r2,	0(r14)	;
     258:	00 0b       	bra	@r11		;
     25a:	37 03 00 00 	mova	0(r3),	r7	;
     25e:	05 55       	rla	r5		;
     260:	64 00 00 00 	mova	r0,	&262144	; 0x40000
     264:	02 0b       	mova	@r11,	r2	;
     266:	3c 01 00 00 	mova	0(r1),	r12	;
     26a:	05 56       	add	r6,	r5	;
     26c:	84 02 00 00 	mova	#131072,r4	;0x20000
     270:	04 0b       	mova	@r11,	r4	;
     272:	7c 01 00 00 	mova	r1,	0(r12)	;
     276:	05 57       	add	r7,	r5	;
     278:	9b 02 00 00 	cmpa	#131072,r11	;0x20000
     27c:	44 00       	rrcm.a	#1,	r4	;
     27e:	0f 02       	mova	@r2,	r15	;
     280:	41 02       	rlam.a	#1,	r1	;
     282:	00 00       	beq			
     284:	08 94       	cmp	r4,	r8	;
     286:	02 00       	mova	@r0,	r2	;
     288:	00 94       	cmp	r4,	r0	;
     28a:	02 00       	mova	@r0,	r2	;
     28c:	00 09       	bra	@r9		;
     28e:	25 00 00 00 	mova	&0,	r5	;
     292:	1f 00       	mova	@r0+,	r15	;
     294:	0f 02       	mova	@r2,	r15	;
     296:	9a 02 00 00 	cmpa	#131072,r10	;0x20000
     29a:	10 0f       	bra	@r15+		;
     29c:	02 f4       	and	r4,	r2	;
     29e:	01 00       	mova	@r0,	r1	;
     2a0:	00 0d       	bra	@r13		;
     2a2:	f0 02       	suba	r2,	r0	;
     2a4:	00 00       	beq			
     2a6:	04 05       	mova	@r5,	r4	;
     2a8:	73 c6       	.word	0xc673;	????
     2aa:	02 00       	mova	@r0,	r2	;
     2ac:	00 0b       	bra	@r11		;
     2ae:	b3 00 00 00 	suba	#0,	r3	;
     2b2:	05 74       	subc	r4,	r5	;
     2b4:	c6 02       	mova	r2,	r6	;
     2b6:	00 00       	beq			
     2b8:	00 0b       	bra	@r11		;
     2ba:	0c 00       	mova	@r0,	r12	;
     2bc:	00 00       	beq			
     2be:	05 75       	subc	r5,	r5	;
     2c0:	64 00 00 00 	mova	r0,	&262144	; 0x40000
     2c4:	02 00       	mova	@r0,	r2	;
     2c6:	0f 02       	mova	@r2,	r15	;
     2c8:	33 00 00 00 	mova	0(r0),	r3	;
     2cc:	0d 9d       	cmp	r13,	r13	;
     2ce:	01 00       	mova	@r0,	r1	;
     2d0:	00 12       	push	r0		;
     2d2:	05 97       	cmp	r7,	r5	;
     2d4:	36 03 00 00 	mova	0(r3),	r6	;
     2d8:	0e 5f       	add	r15,	r14	;
     2da:	70 00 05 98 	mova	r0,	-26619(r0); PC rel. 0xffffffffffff9ae1
     2de:	c6 02       	mova	r2,	r6	;
     2e0:	00 00       	beq			
     2e2:	00 0e       	bra	@r14		;
     2e4:	5f 72 00 05 	subc.b	&0x0500,r15	;0x0500
     2e8:	99 64 00 00 	addc	0(r4),	512(r9)	; 0x0200
     2ec:	00 02 
     2ee:	0e 5f       	add	r15,	r14	;
     2f0:	77 00 05 9a 	mova	r0,	-26107(r7); 0xffff9a05
     2f4:	64 00 00 00 	mova	r0,	&262144	; 0x40000
     2f8:	04 0b       	mova	@r11,	r4	;
     2fa:	ed 00       	adda	r0,	r13	;
     2fc:	00 00       	beq			
     2fe:	05 9b       	cmp	r11,	r5	;
     300:	3a 00 00 00 	mova	0(r0),	r10	;
     304:	06 0b       	mova	@r11,	r6	;
     306:	16 04       	mova	@r4+,	r6	;
     308:	00 00       	beq			
     30a:	05 9c       	cmp	r12,	r5	;
     30c:	3a 00 00 00 	mova	0(r0),	r10	;
     310:	08 0e       	mova	@r14,	r8	;
     312:	5f 62 66 00 	addc.b	&0x0066,r15	;0x0066
     316:	05 9d       	cmp	r13,	r5	;
     318:	a1 02 00 00 	adda	#131072,r1	;0x20000
     31c:	0a 0b       	mova	@r11,	r10	;
     31e:	70 00 00 00 	mova	r0,	0(r0)	;
     322:	05 9e       	cmp	r14,	r5	;
     324:	64 00 00 00 	mova	r0,	&262144	; 0x40000
     328:	0e 0b       	mova	@r11,	r14	;
     32a:	2c 00 00 00 	mova	&0,	r12	;
     32e:	05 a0       	dadd	r0,	r5	;
     330:	81 04 00 00 	mova	#262144,r1	;0x40000
     334:	10 00       	bra	@r0+		;
     336:	11 cc 02 00 	bic	2(r12),	r1	;
     33a:	00 12       	push	r0		;
     33c:	d0 03       	cmpa	r3,	r0	;
     33e:	00 00       	beq			
     340:	78 05 72 01 	mova	r5,	370(r8)	; 0x00172
     344:	81 04 00 00 	mova	#262144,r1	;0x40000
     348:	13 93       	.word	0x9313;	????
     34a:	03 00       	mova	@r0,	r3	;
     34c:	00 05       	bra	@r5		;
     34e:	76 01 64 00 	mova	r1,	100(r6)	; 0x00064
     352:	00 00       	beq			
     354:	00 13       	reti			
     356:	67 02 00 00 	mova	r2,	&458752	; 0x70000
     35a:	05 7b       	subc	r11,	r5	;
     35c:	01 bb       	bit	r11,	r1	;
     35e:	06 00       	mova	@r0,	r6	;
     360:	00 02       	bra	@r2		;
     362:	13 77       	.word	0x7713;	????
     364:	02 00       	mova	@r0,	r2	;
     366:	00 05       	bra	@r5		;
     368:	7b 01 bb 06 	mova	r1,	1723(r11); 0x006bb
     36c:	00 00       	beq			
     36e:	04 13       	reti			;return from interupt
     370:	ce 04       	mova	r4,	r14	;
     372:	00 00       	beq			
     374:	05 7b       	subc	r11,	r5	;
     376:	01 bb       	bit	r11,	r1	;
     378:	06 00       	mova	@r0,	r6	;
     37a:	00 06       	bra	@r6		;
     37c:	13 32       	jn	$-984    	;abs 0xffffffffffffffa4
     37e:	03 00       	mova	@r0,	r3	;
     380:	00 05       	bra	@r5		;
     382:	7d 01 64 00 	mova	r1,	100(r13); 0x00064
     386:	00 00       	beq			
     388:	08 13       	reti			;return from interupt
     38a:	1a 00       	mova	@r0+,	r10	;
     38c:	00 00       	beq			
     38e:	05 7f       	subc	r15,	r5	;
     390:	01 d4       	bis	r4,	r1	;
     392:	05 00       	mova	@r0,	r5	;
     394:	00 0a       	bra	@r10		;
     396:	13 9a       	.word	0x9a13;	????
     398:	02 00       	mova	@r0,	r2	;
     39a:	00 05       	bra	@r5		;
     39c:	81 01 64 00 	mova	#65636,	r1	;0x10064
     3a0:	00 00       	beq			
     3a2:	0c 13       	reti			;return from interupt
     3a4:	04 04       	mova	@r4,	r4	;
     3a6:	00 00       	beq			
     3a8:	05 83       	sub	#0,	r5	;r3 As==00
     3aa:	01 64       	addc	r4,	r1	;
     3ac:	00 00       	beq			
     3ae:	00 0e       	bra	@r14		;
     3b0:	13 3c       	jmp	$+40     	;abs 0x3d8
     3b2:	03 00       	mova	@r0,	r3	;
     3b4:	00 05       	bra	@r5		;
     3b6:	84 01 0a 06 	mova	#67082,	r4	;0x1060a
     3ba:	00 00       	beq			
     3bc:	10 14       	pushm.a	#2,	r0	;20-bit words
     3be:	5f 6d 70 00 	addc.b	112(r13),r15	;0x00070
     3c2:	05 86       	sub	r6,	r5	;
     3c4:	01 08       	mova	@r8,	r1	;
     3c6:	08 00       	mova	@r0,	r8	;
     3c8:	00 12       	push	r0		;
     3ca:	13 4c       	.word	0x4c13;	????
     3cc:	03 00       	mova	@r0,	r3	;
     3ce:	00 05       	bra	@r5		;
     3d0:	88 01 19 08 	mova	#67609,	r8	;0x10819
     3d4:	00 00       	beq			
     3d6:	14 13       	reti			;return from interupt
     3d8:	58 01       	rram	#1,	r8	;
     3da:	00 00       	beq			
     3dc:	05 8a       	sub	r10,	r5	;
     3de:	01 64       	addc	r4,	r1	;
     3e0:	00 00       	beq			
     3e2:	00 16       	popm.a	#1,	r0	;20-bit words
     3e4:	13 95       	.word	0x9513;	????
     3e6:	01 00       	mova	@r0,	r1	;
     3e8:	00 05       	bra	@r5		;
     3ea:	8d 01 64 00 	mova	#65636,	r13	;0x10064
     3ee:	00 00       	beq			
     3f0:	18 13       	reti			;return from interupt
     3f2:	05 01       	mova	@r1,	r5	;
     3f4:	00 00       	beq			
     3f6:	05 8e       	sub	r14,	r5	;
     3f8:	01 d4       	bis	r4,	r1	;
     3fa:	05 00       	mova	@r0,	r5	;
     3fc:	00 1a 13 d6 	.word	0x1a00, 0xd613;	????	 Illegal as 2-op instr
     400:	04 00       	mova	@r0,	r4	;
     402:	00 05       	bra	@r5		;
     404:	90 01 1f 08 	cmpa	#67615,	r0	;0x1081f
     408:	00 00       	beq			
     40a:	1c 13       	reti			;return from interupt
     40c:	af 04 00 00 	adda	#262144,r15	;0x40000
     410:	05 91       	cmp	r1,	r5	;
     412:	01 25       	jz	$+516    	;abs 0x616
     414:	08 00       	mova	@r0,	r8	;
     416:	00 1e 13 d9 	.word	0x1e00, 0xd913;	????	 Illegal as 2-op instr
     41a:	01 00       	mova	@r0,	r1	;
     41c:	00 05       	bra	@r5		;
     41e:	92 01 d4 05 	cmpa	#67028,	r2	;0x105d4
     422:	00 00       	beq			
     424:	20 13       	reti			;return from interupt
     426:	94 04 00 00 	cmpa	#262144,r4	;0x40000
     42a:	05 95       	cmp	r5,	r5	;
     42c:	01 36       	jge	$-1020   	;abs 0x30
     42e:	08 00       	mova	@r0,	r8	;
     430:	00 22       	.word	0x2200;	????
     432:	13 88       	.word	0x8813;	????
     434:	02 00       	mova	@r0,	r2	;
     436:	00 05       	bra	@r5		;
     438:	99 01 7e 02 	cmpa	#66174,	r9	;0x1027e
     43c:	00 00       	beq			
     43e:	24 13       	reti			;return from interupt
     440:	c4 01       	mova	r1,	r4	;
     442:	00 00       	beq			
     444:	05 9a       	cmp	r10,	r5	;
     446:	01 41       	mov	r1,	r1	;
     448:	02 00       	mova	@r0,	r2	;
     44a:	00 26       	.word	0x2600;	????
     44c:	13 de       	.word	0xde13;	????
     44e:	00 00       	beq			
     450:	00 05       	bra	@r5		;
     452:	9d 01 80 06 	cmpa	#67200,	r13	;0x10680
     456:	00 00       	beq			
     458:	6c 13       	calla	@r12		;
     45a:	c3 00       	mova	r0,	r3	;
     45c:	00 00       	beq			
     45e:	05 9e       	cmp	r14,	r5	;
     460:	01 bb       	bit	r11,	r1	;
     462:	06 00       	mova	@r0,	r6	;
     464:	00 72       	subc	r2,	r0	;
     466:	13 4c       	.word	0x4c13;	????
     468:	02 00       	mova	@r0,	r2	;
     46a:	00 05       	bra	@r5		;
     46c:	9f 01 42 08 	cmpa	#67650,	r15	;0x10842
     470:	00 00       	beq			
     472:	74 13       	calla	@r4+		;
     474:	cd 01       	mova	r1,	r13	;
     476:	00 00       	beq			
     478:	05 a0       	dadd	r0,	r5	;
     47a:	01 d4       	bis	r4,	r1	;
     47c:	05 00       	mova	@r0,	r5	;
     47e:	00 76       	subc	r6,	r0	;
     480:	00 0f       	bra	@r15		;
     482:	02 3b       	jl	$-506    	;abs 0x288
     484:	03 00       	mova	@r0,	r3	;
     486:	00 11       	rra	r0		;
     488:	81 04 00 00 	mova	#262144,r1	;0x40000
     48c:	0d 09       	mova	@r9,	r13	;
     48e:	03 00       	mova	@r0,	r3	;
     490:	00 3c       	jmp	$+2      	;abs 0x492
     492:	05 b3       	bit	#0,	r5	;r3 As==00
     494:	b6 05 00 00 	suba	#327680,r6	;0x50000
     498:	0e 5f       	add	r15,	r14	;
     49a:	70 00 05 b4 	mova	r0,	-19451(r0); PC rel. 0xffffffffffffb8a1
     49e:	c6 02       	mova	r2,	r6	;
     4a0:	00 00       	beq			
     4a2:	00 0e       	bra	@r14		;
     4a4:	5f 72 00 05 	subc.b	&0x0500,r15	;0x0500
     4a8:	b5 64 00 00 	addc	@r4+,	0(r5)	;
     4ac:	00 02       	bra	@r2		;
     4ae:	0e 5f       	add	r15,	r14	;
     4b0:	77 00 05 b6 	mova	r0,	-18939(r7); 0xffffb605
     4b4:	64 00 00 00 	mova	r0,	&262144	; 0x40000
     4b8:	04 0b       	mova	@r11,	r4	;
     4ba:	ed 00       	adda	r0,	r13	;
     4bc:	00 00       	beq			
     4be:	05 b7       	bit	r7,	r5	;
     4c0:	3a 00 00 00 	mova	0(r0),	r10	;
     4c4:	06 0b       	mova	@r11,	r6	;
     4c6:	16 04       	mova	@r4+,	r6	;
     4c8:	00 00       	beq			
     4ca:	05 b8       	bit	r8,	r5	;
     4cc:	3a 00 00 00 	mova	0(r0),	r10	;
     4d0:	08 0e       	mova	@r14,	r8	;
     4d2:	5f 62 66 00 	addc.b	&0x0066,r15	;0x0066
     4d6:	05 b9       	bit	r9,	r5	;
     4d8:	a1 02 00 00 	adda	#131072,r1	;0x20000
     4dc:	0a 0b       	mova	@r11,	r10	;
     4de:	70 00 00 00 	mova	r0,	0(r0)	;
     4e2:	05 ba       	bit	r10,	r5	;
     4e4:	64 00 00 00 	mova	r0,	&262144	; 0x40000
     4e8:	0e 0b       	mova	@r11,	r14	;
     4ea:	2c 00 00 00 	mova	&0,	r12	;
     4ee:	05 bd       	bit	r13,	r5	;
     4f0:	81 04 00 00 	mova	#262144,r1	;0x40000
     4f4:	10 0b       	bra	@r11+		;
     4f6:	d6 00       	cmpa	r0,	r6	;
     4f8:	00 00       	beq			
     4fa:	05 c1       	bic	r1,	r5	;
     4fc:	05 01       	mova	@r1,	r5	;
     4fe:	00 00       	beq			
     500:	12 0b       	mova	@r11+,	r2	;
     502:	67 01 00 00 	mova	r1,	&458752	; 0x70000
     506:	05 c3       	bic	#0,	r5	;r3 As==00
     508:	e6 05       	adda	r5,	r6	;
     50a:	00 00       	beq			
     50c:	14 0b       	mova	@r11+,	r4	;
     50e:	15 02       	mova	@r2+,	r5	;
     510:	00 00       	beq			
     512:	05 c5       	bic	r5,	r5	;
     514:	10 06       	bra	@r6+		;
     516:	00 00       	beq			
     518:	16 0b       	mova	@r11+,	r6	;
     51a:	74 03 00 00 	mova	r3,	0(r4)	;
     51e:	05 c8       	bic	r8,	r5	;
     520:	34 06 00 00 	mova	0(r6),	r4	;
     524:	18 0b       	mova	@r11+,	r8	;
     526:	be 04 00 00 	suba	#262144,r14	;0x40000
     52a:	05 c9       	bic	r9,	r5	;
     52c:	4e 06       	rlam.a	#2,	r14	;
     52e:	00 00       	beq			
     530:	1a 0e       	mova	@r14+,	r10	;
     532:	5f 75 62 00 	subc.b	98(r5),	r15	;0x00062
     536:	05 cc       	bic	r12,	r5	;
     538:	a1 02 00 00 	adda	#131072,r1	;0x20000
     53c:	1c 0e       	mova	@r14+,	r12	;
     53e:	5f 75 70 00 	subc.b	112(r5),r15	;0x00070
     542:	05 cd       	bic	r13,	r5	;
     544:	c6 02       	mova	r2,	r6	;
     546:	00 00       	beq			
     548:	20 0e 5f 75 	bra	&947551	;0xe755f
     54c:	72 00 05 ce 	mova	r0,	-12795(r2); 0xffffce05
     550:	64 00 00 00 	mova	r0,	&262144	; 0x40000
     554:	22 0b ad 00 	mova	&721069,r2	;0xb00ad
     558:	00 00       	beq			
     55a:	05 d1       	bis	r1,	r5	;
     55c:	54 06       	rlam	#2,	r4	;
     55e:	00 00       	beq			
     560:	24 0b 9e 04 	mova	&722078,r4	;0xb049e
     564:	00 00       	beq			
     566:	05 d2       	bis	r2,	r5	;
     568:	64 06 00 00 	mova	r6,	&262144	; 0x40000
     56c:	27 0e 5f 6c 	mova	&945247,r7	;0xe6c5f
     570:	62 00 05 d5 	mova	r0,	&185605	; 0x2d505
     574:	a1 02 00 00 	adda	#131072,r1	;0x20000
     578:	28 0b fc 00 	mova	&721148,r8	;0xb00fc
     57c:	00 00       	beq			
     57e:	05 d8       	bis	r8,	r5	;
     580:	64 00 00 00 	mova	r0,	&262144	; 0x40000
     584:	2c 0b 0d 01 	mova	&721165,r12	;0xb010d
     588:	00 00       	beq			
     58a:	05 d9       	bis	r9,	r5	;
     58c:	7d 00 00 00 	mova	r0,	0(r13)	;
     590:	2e 0b 02 02 	mova	&721410,r14	;0xb0202
     594:	00 00       	beq			
     596:	05 e0       	xor	r0,	r5	;
     598:	fa 00       	suba	r0,	r10	;
     59a:	00 00       	beq			
     59c:	32 0b 11 03 	mova	785(r11),r2	;0x00311
     5a0:	00 00       	beq			
     5a2:	05 e2       	xor	r2,	r5	;
     5a4:	ef 00       	adda	r0,	r15	;
     5a6:	00 00       	beq			
     5a8:	34 0b 08 02 	mova	520(r11),r4	;0x00208
     5ac:	00 00       	beq			
     5ae:	05 e3       	xor	#0,	r5	;r3 As==00
     5b0:	64 00 00 00 	mova	r0,	&262144	; 0x40000
     5b4:	3a 00 15 64 	mova	25621(r0),r10	;PC rel. 0x069cb
     5b8:	00 00       	beq			
     5ba:	00 d4       	bis	r4,	r0	;
     5bc:	05 00       	mova	@r0,	r5	;
     5be:	00 16       	popm.a	#1,	r0	;20-bit words
     5c0:	81 04 00 00 	mova	#262144,r1	;0x40000
     5c4:	16 05       	mova	@r5+,	r6	;
     5c6:	01 00       	mova	@r0,	r1	;
     5c8:	00 16       	popm.a	#1,	r0	;20-bit words
     5ca:	d4 05       	cmpa	r5,	r4	;
     5cc:	00 00       	beq			
     5ce:	16 64 00 00 	addc	0(r4),	r6	;
     5d2:	00 00       	beq			
     5d4:	0f 02       	mova	@r2,	r15	;
     5d6:	da 05       	cmpa	r5,	r10	;
     5d8:	00 00       	beq			
     5da:	02 01       	mova	@r1,	r2	;
     5dc:	08 d1       	bis	r1,	r8	;
     5de:	02 00       	mova	@r0,	r2	;
     5e0:	00 11       	rra	r0		;
     5e2:	da 05       	cmpa	r5,	r10	;
     5e4:	00 00       	beq			
     5e6:	0f 02       	mova	@r2,	r15	;
     5e8:	b6 05 00 00 	suba	#327680,r6	;0x50000
     5ec:	15 64 00 00 	addc	0(r4),	r5	;
     5f0:	00 0a       	bra	@r10		;
     5f2:	06 00       	mova	@r0,	r6	;
     5f4:	00 16       	popm.a	#1,	r0	;20-bit words
     5f6:	81 04 00 00 	mova	#262144,r1	;0x40000
     5fa:	16 05       	mova	@r5+,	r6	;
     5fc:	01 00       	mova	@r0,	r1	;
     5fe:	00 16       	popm.a	#1,	r0	;20-bit words
     600:	0a 06       	mova	@r6,	r10	;
     602:	00 00       	beq			
     604:	16 64 00 00 	addc	0(r4),	r6	;
     608:	00 00       	beq			
     60a:	0f 02       	mova	@r2,	r15	;
     60c:	e1 05       	adda	r5,	r1	;
     60e:	00 00       	beq			
     610:	0f 02       	mova	@r2,	r15	;
     612:	ec 05       	adda	r5,	r12	;
     614:	00 00       	beq			
     616:	15 88 00 00 	sub	0(r8),	r5	;
     61a:	00 34       	jge	$+2      	;abs 0x61c
     61c:	06 00       	mova	@r0,	r6	;
     61e:	00 16       	popm.a	#1,	r0	;20-bit words
     620:	81 04 00 00 	mova	#262144,r1	;0x40000
     624:	16 05       	mova	@r5+,	r6	;
     626:	01 00       	mova	@r0,	r1	;
     628:	00 16       	popm.a	#1,	r0	;20-bit words
     62a:	88 00 00 00 	mova	#0,	r8	;
     62e:	16 64 00 00 	addc	0(r4),	r6	;
     632:	00 00       	beq			
     634:	0f 02       	mova	@r2,	r15	;
     636:	16 06       	mova	@r6+,	r6	;
     638:	00 00       	beq			
     63a:	15 64 00 00 	addc	0(r4),	r5	;
     63e:	00 4e       	br	r14		;
     640:	06 00       	mova	@r0,	r6	;
     642:	00 16       	popm.a	#1,	r0	;20-bit words
     644:	81 04 00 00 	mova	#262144,r1	;0x40000
     648:	16 05       	mova	@r5+,	r6	;
     64a:	01 00       	mova	@r0,	r1	;
     64c:	00 00       	beq			
     64e:	0f 02       	mova	@r2,	r15	;
     650:	3a 06 00 00 	mova	0(r6),	r10	;
     654:	08 33       	jn	$-494    	;abs 0x466
     656:	00 00       	beq			
     658:	00 64       	addc	r4,	r0	;
     65a:	06 00       	mova	@r0,	r6	;
     65c:	00 09       	bra	@r9		;
     65e:	25 00 00 00 	mova	&0,	r5	;
     662:	02 00       	mova	@r0,	r2	;
     664:	08 33       	jn	$-494    	;abs 0x476
     666:	00 00       	beq			
     668:	00 74       	subc	r4,	r0	;
     66a:	06 00       	mova	@r0,	r6	;
     66c:	00 09       	bra	@r9		;
     66e:	25 00 00 00 	mova	&0,	r5	;
     672:	00 00       	beq			
     674:	05 f7       	and	r7,	r5	;
     676:	02 00       	mova	@r0,	r2	;
     678:	00 05       	bra	@r5		;
     67a:	1d 01       	mova	@r1+,	r13	;
     67c:	8c 04 00 00 	mova	#262144,r12	;0x40000
     680:	12 2b       	jnc	$-474    	;abs 0x4a6
     682:	04 00       	mova	@r0,	r4	;
     684:	00 06       	bra	@r6		;
     686:	05 21       	jnz	$+524    	;abs 0x892
     688:	01 b5       	bit	r5,	r1	;
     68a:	06 00       	mova	@r0,	r6	;
     68c:	00 13       	reti			
     68e:	1f 03       	mova	@r3+,	r15	;
     690:	00 00       	beq			
     692:	05 23       	jnz	$-500    	;abs 0x49e
     694:	01 b5       	bit	r5,	r1	;
     696:	06 00       	mova	@r0,	r6	;
     698:	00 00       	beq			
     69a:	13 aa       	.word	0xaa13;	????
     69c:	01 00       	mova	@r0,	r1	;
     69e:	00 05       	bra	@r5		;
     6a0:	24 01 64 00 	mova	&65636,	r4	;0x10064
     6a4:	00 00       	beq			
     6a6:	02 13       	reti			;return from interupt
     6a8:	d6 02       	cmpa	r2,	r6	;
     6aa:	00 00       	beq			
     6ac:	05 25       	jz	$+524    	;abs 0x8b8
     6ae:	01 bb       	bit	r11,	r1	;
     6b0:	06 00       	mova	@r0,	r6	;
     6b2:	00 04       	bra	@r4		;
     6b4:	00 0f       	bra	@r15		;
     6b6:	02 80       	sub	r0,	r2	;
     6b8:	06 00       	mova	@r0,	r6	;
     6ba:	00 0f       	bra	@r15		;
     6bc:	02 74       	subc	r4,	r2	;
     6be:	06 00       	mova	@r0,	r6	;
     6c0:	00 12       	push	r0		;
     6c2:	12 00       	mova	@r0+,	r2	;
     6c4:	00 00       	beq			
     6c6:	16 05       	mova	@r5+,	r6	;
     6c8:	3d 01 03 07 	mova	1795(r1),r13	;0x00703
     6cc:	00 00       	beq			
     6ce:	13 5e       	.word	0x5e13;	????
     6d0:	03 00       	mova	@r0,	r3	;
     6d2:	00 05       	bra	@r5		;
     6d4:	3e 01 03 07 	mova	1795(r1),r14	;0x00703
     6d8:	00 00       	beq			
     6da:	00 13       	reti			
     6dc:	af 03 00 00 	adda	#196608,r15	;0x30000
     6e0:	05 3f       	jmp	$-500    	;abs 0x4ec
     6e2:	01 03       	mova	@r3,	r1	;
     6e4:	07 00       	mova	@r0,	r7	;
     6e6:	00 06       	bra	@r6		;
     6e8:	13 d7       	.word	0xd713;	????
     6ea:	03 00       	mova	@r0,	r3	;
     6ec:	00 05       	bra	@r5		;
     6ee:	40 01       	rram.a	#1,	r0	;
     6f0:	41 00       	rrcm.a	#1,	r1	;
     6f2:	00 00       	beq			
     6f4:	0c 13       	reti			;return from interupt
     6f6:	1a 03       	mova	@r3+,	r10	;
     6f8:	00 00       	beq			
     6fa:	05 43       	clr	r5		;
     6fc:	01 5d       	add	r13,	r1	;
     6fe:	00 00       	beq			
     700:	00 0e       	bra	@r14		;
     702:	00 08       	bra	@r8		;
     704:	41 00       	rrcm.a	#1,	r1	;
     706:	00 00       	beq			
     708:	13 07       	mova	@r7+,	r3	;
     70a:	00 00       	beq			
     70c:	09 25       	jz	$+532    	;abs 0x920
     70e:	00 00       	beq			
     710:	00 02       	bra	@r2		;
     712:	00 12       	push	r0		;
     714:	e6 00       	adda	r0,	r6	;
     716:	00 00       	beq			
     718:	08 05       	mova	@r5,	r8	;
     71a:	56 01       	rram	#1,	r6	;
     71c:	55 07       	rrum	#2,	r5	;
     71e:	00 00       	beq			
     720:	13 e6       	.word	0xe613;	????
     722:	01 00       	mova	@r0,	r1	;
     724:	00 05       	bra	@r5		;
     726:	59 01       	rram	#1,	r9	;
     728:	65 01 00 00 	mova	r1,	&327680	; 0x50000
     72c:	00 13       	reti			
     72e:	6d 01 00 00 	mova	r1,	&851968	; 0xd0000
     732:	05 5a       	add	r10,	r5	;
     734:	01 64       	addc	r4,	r1	;
     736:	00 00       	beq			
     738:	00 02       	bra	@r2		;
     73a:	13 e9       	.word	0xe913;	????
     73c:	04 00       	mova	@r0,	r4	;
     73e:	00 05       	bra	@r5		;
     740:	5b 01       	rram	#1,	r11	;
     742:	65 01 00 00 	mova	r1,	&327680	; 0x50000
     746:	04 13       	reti			;return from interupt
     748:	ac 02 00 00 	adda	#131072,r12	;0x20000
     74c:	05 5c       	add	r12,	r5	;
     74e:	01 55       	add	r5,	r1	;
     750:	07 00       	mova	@r0,	r7	;
     752:	00 06       	bra	@r6		;
     754:	00 0f       	bra	@r15		;
     756:	02 65       	addc	r5,	r2	;
     758:	01 00       	mova	@r0,	r1	;
     75a:	00 12       	push	r0		;
     75c:	cb 03       	mova	r3,	r11	;
     75e:	00 00       	beq			
     760:	3c 05 60 01 	mova	352(r5),r12	;0x00160
     764:	f8 07       	suba	r7,	r8	;
     766:	00 00       	beq			
     768:	13 b5       	.word	0xb513;	????
     76a:	03 00       	mova	@r0,	r3	;
     76c:	00 05       	bra	@r5		;
     76e:	63 01 d4 05 	mova	r1,	&198100	; 0x305d4
     772:	00 00       	beq			
     774:	00 13       	reti			
     776:	25 03 00 00 	mova	&196608,r5	;0x30000
     77a:	05 64       	addc	r4,	r5	;
     77c:	01 ef       	xor	r15,	r1	;
     77e:	00 00       	beq			
     780:	00 02       	bra	@r2		;
     782:	13 88       	.word	0x8813;	????
     784:	00 00       	beq			
     786:	00 05       	bra	@r5		;
     788:	65 01 ef 00 	mova	r1,	&327919	; 0x500ef
     78c:	00 00       	beq			
     78e:	08 13       	reti			;return from interupt
     790:	db 04       	cmpa	r4,	r11	;
     792:	00 00       	beq			
     794:	05 66       	addc	r6,	r5	;
     796:	01 ef       	xor	r15,	r1	;
     798:	00 00       	beq			
     79a:	00 0e       	bra	@r14		;
     79c:	13 7a       	.word	0x7a13;	????
     79e:	03 00       	mova	@r0,	r3	;
     7a0:	00 05       	bra	@r5		;
     7a2:	67 01 f8 07 	mova	r1,	&460792	; 0x707f8
     7a6:	00 00       	beq			
     7a8:	14 13       	reti			;return from interupt
     7aa:	e4 03       	adda	r3,	r4	;
     7ac:	00 00       	beq			
     7ae:	05 68       	addc	r8,	r5	;
     7b0:	01 64       	addc	r4,	r1	;
     7b2:	00 00       	beq			
     7b4:	00 1c 13 26 	jzx.?	$-984    	;abs 0x3de, Reserved use of A/L and B/W bits detected
     7b8:	01 00       	mova	@r0,	r1	;
     7ba:	00 05       	bra	@r5		;
     7bc:	69 01 ef 00 	mova	r1,	&590063	; 0x900ef
     7c0:	00 00       	beq			
     7c2:	1e 13       	reti			;return from interupt
     7c4:	79 00 00 00 	mova	r0,	0(r9)	;
     7c8:	05 6a       	addc	r10,	r5	;
     7ca:	01 ef       	xor	r15,	r1	;
     7cc:	00 00       	beq			
     7ce:	00 24       	jz	$+2      	;abs 0x7d0
     7d0:	13 15       	pushm	#2,	r3	;16-bit words
     7d2:	01 00       	mova	@r0,	r1	;
     7d4:	00 05       	bra	@r5		;
     7d6:	6b 01 ef 00 	mova	r1,	&721135	; 0xb00ef
     7da:	00 00       	beq			
     7dc:	2a 13       	reti			;return from interupt
     7de:	32 00 00 00 	mova	0(r0),	r2	;
     7e2:	05 6c       	addc	r12,	r5	;
     7e4:	01 ef       	xor	r15,	r1	;
     7e6:	00 00       	beq			
     7e8:	00 30       	jn	$+2      	;abs 0x7ea
     7ea:	13 41       	.word	0x4113;	????
     7ec:	00 00       	beq			
     7ee:	00 05       	bra	@r5		;
     7f0:	6d 01 ef 00 	mova	r1,	&852207	; 0xd00ef
     7f4:	00 00       	beq			
     7f6:	36 00 08 da 	mova	-9720(r0),r6	;PC rel. 0xffffffffffffe200
     7fa:	05 00       	mova	@r0,	r5	;
     7fc:	00 08       	bra	@r8		;
     7fe:	08 00       	mova	@r0,	r8	;
     800:	00 09       	bra	@r9		;
     802:	25 00 00 00 	mova	&0,	r5	;
     806:	07 00       	mova	@r0,	r7	;
     808:	0f 02       	mova	@r2,	r15	;
     80a:	13 07       	mova	@r7+,	r3	;
     80c:	00 00       	beq			
     80e:	17 19 08 00 	rpt #8 { movax	@r0,	r8	;
     812:	00 16       	popm.a	#1,	r0	;20-bit words
     814:	81 04 00 00 	mova	#262144,r1	;0x40000
     818:	00 0f       	bra	@r15		;
     81a:	02 0e       	mova	@r14,	r2	;
     81c:	08 00       	mova	@r0,	r8	;
     81e:	00 0f       	bra	@r15		;
     820:	02 c1       	bic	r1,	r2	;
     822:	06 00       	mova	@r0,	r6	;
     824:	00 0f       	bra	@r15		;
     826:	02 7b       	subc	r11,	r2	;
     828:	01 00       	mova	@r0,	r1	;
     82a:	00 17       	popm	#1,	r0	;16-bit words
     82c:	36 08 00 00 	mova	0(r8),	r6	;
     830:	16 64 00 00 	addc	0(r4),	r6	;
     834:	00 00       	beq			
     836:	0f 02       	mova	@r2,	r15	;
     838:	3c 08 00 00 	mova	0(r8),	r12	;
     83c:	0f 02       	mova	@r2,	r15	;
     83e:	2b 08 00 00 	mova	&524288,r11	;0x80000
     842:	0f 02       	mova	@r2,	r15	;
     844:	5b 07       	rrum	#2,	r11	;
     846:	00 00       	beq			
     848:	18 5e 02 00 	add	2(r14),	r8	;
     84c:	00 05       	bra	@r5		;
     84e:	a3 01 36 03 	adda	#66358,	r3	;0x10336
     852:	00 00       	beq			
     854:	18 6e 02 00 	addc	2(r14),	r8	;
     858:	00 05       	bra	@r5		;
     85a:	a4 01 36 03 	adda	#66358,	r4	;0x10336
     85e:	00 00       	beq			
     860:	18 c5 04 00 	bic	4(r5),	r8	;
     864:	00 05       	bra	@r5		;
     866:	a5 01 36 03 	adda	#66358,	r5	;0x10336
     86a:	00 00       	beq			
     86c:	18 f8 03 00 	and	3(r8),	r8	;
     870:	00 05       	bra	@r5		;
     872:	fd 02       	suba	r2,	r13	;
     874:	81 04 00 00 	mova	#262144,r1	;0x40000
     878:	18 f1 03 00 	and	3(r1),	r8	;
     87c:	00 05       	bra	@r5		;
     87e:	fe 02       	suba	r2,	r14	;
     880:	87 04 00 00 	mova	#262144,r7	;0x40000
     884:	0d a3       	dadc	r13		;
     886:	03 00       	mova	@r0,	r3	;
     888:	00 08       	bra	@r8		;
     88a:	06 0b       	mova	@r11,	r6	;
     88c:	bf 08 00 00 	suba	#524288,r15	;0x80000
     890:	0e 73       	sbc	r14		;
     892:	74 72       	subc.b	#8,	r4	;r2 As==11
     894:	00 06       	bra	@r6		;
     896:	0c c6       	bic	r6,	r12	;
     898:	02 00       	mova	@r0,	r2	;
     89a:	00 00       	beq			
     89c:	0b 8c       	sub	r12,	r11	;
     89e:	03 00       	mova	@r0,	r3	;
     8a0:	00 06       	bra	@r6		;
     8a2:	0d 25       	jz	$+540    	;abs 0xabe
     8a4:	00 00       	beq			
     8a6:	00 02       	bra	@r2		;
     8a8:	0b 10       	rrc	r11		;
     8aa:	02 00       	mova	@r0,	r2	;
     8ac:	00 06       	bra	@r6		;
     8ae:	0e c6       	bic	r6,	r14	;
     8b0:	08 00       	mova	@r0,	r8	;
     8b2:	00 04       	bra	@r4		;
     8b4:	0e 6e       	rlc	r14		;
     8b6:	00 06       	bra	@r6		;
     8b8:	0f cc       	bic	r12,	r15	;
     8ba:	08 00       	mova	@r0,	r8	;
     8bc:	00 06       	bra	@r6		;
     8be:	00 19 c6 08 	movax	r8,	r6	;
     8c2:	00 00       	beq			
     8c4:	1a 00       	mova	@r0+,	r10	;
     8c6:	0f 02       	mova	@r2,	r15	;
     8c8:	bf 08 00 00 	suba	#524288,r15	;0x80000
     8cc:	0f 02       	mova	@r2,	r15	;
     8ce:	4f 00       	rrcm.a	#1,	r15	;
     8d0:	00 00       	beq			
     8d2:	1b 90 02 00 	cmp	0x0002,	r11	;PC rel. 0x08d6
     8d6:	00 07       	bra	@r7		;
     8d8:	5f d4 05 00 	bis.b	5(r4),	r15	;
     8dc:	00 1c ee 04 	addax	r4,	r14	;
     8e0:	00 00       	beq			
     8e2:	01 0d       	mova	@r13,	r1	;
     8e4:	64 00 00 00 	mova	r0,	&262144	; 0x40000
     8e8:	8e e1 00 00 	xor	r1,	0(r14)	;
     8ec:	de 00       	cmpa	r0,	r14	;
     8ee:	00 00       	beq			
     8f0:	01 9c       	cmp	r12,	r1	;
     8f2:	6a 09 00 00 	mova	r9,	&655360	; 0xa0000
     8f6:	1d 25       	jz	$+572    	;abs 0xb32
     8f8:	00 00       	beq			
     8fa:	00 01       	bra	@r1		;
     8fc:	0f 6a       	addc	r10,	r15	;
     8fe:	09 00       	mova	@r0,	r9	;
     900:	00 03       	bra	@r3		;
     902:	91 9e 7f 1d 	cmp	7551(r14),82(r1)	;0x01d7f, 0x0052
     906:	52 00 
     908:	00 00       	beq			
     90a:	01 10       	rrc	r1		;
     90c:	7a 09 00 00 	mova	r9,	0(r10)	;
     910:	03 91       	.word	0x9103;	????
     912:	9e 7d 1d a9 	subc	-22243(r13),3(r14)	;0xffffa91d
     916:	03 00 
     918:	00 01       	bra	@r1		;
     91a:	11 84 08 00 	sub	8(r4),	r1	;
     91e:	00 03       	bra	@r3		;
     920:	91 96 7d 1e 	cmp	7805(r6),-7704(r1);0x01e7d, 0xe1e8
     924:	e8 e1 
     926:	00 00       	beq			
     928:	36 00 00 00 	mova	0(r0),	r6	;
     92c:	3d 09 00 00 	mova	0(r9),	r13	;
     930:	1f 69 00 01 	addc	256(r9),r15	;0x00100
     934:	1e 64 00 00 	addc	0(r4),	r14	;
     938:	00 02       	bra	@r2		;
     93a:	91 7c 00 20 	subc	8192(r12),-7642(r1);0x02000, 0xe226
     93e:	26 e2 
     940:	00 00       	beq			
     942:	38 00 00 00 	mova	0(r0),	r8	;
     946:	1f 69 00 01 	addc	256(r9),r15	;0x00100
     94a:	24 64       	addc	@r4,	r4	;
     94c:	00 00       	beq			
     94e:	00 02       	bra	@r2		;
     950:	91 7a 20 2e 	subc	11808(r10),226(r1)	;0x02e20, 0x00e2
     954:	e2 00 
     956:	00 22       	.word	0x2200;	????
     958:	00 00       	beq			
     95a:	00 1f 63 00 	movax	r0,	&206081	; 0x32501
     95e:	01 25 
     960:	25 00 00 00 	mova	&0,	r5	;
     964:	02 91       	cmp	r1,	r2	;
     966:	78 00 00 00 	mova	r0,	0(r8)	;
     96a:	08 33       	jn	$-494    	;abs 0x77c
     96c:	00 00       	beq			
     96e:	00 7a       	subc	r10,	r0	;
     970:	09 00       	mova	@r0,	r9	;
     972:	00 09       	bra	@r9		;
     974:	25 00 00 00 	mova	&0,	r5	;
     978:	59 00       	rrcm	#1,	r9	;
     97a:	21 4f       	mov	@r15,	r1	;
     97c:	00 00       	beq			
     97e:	00 09       	bra	@r9		;
     980:	25 00 00 00 	mova	&0,	r5	;
     984:	3f 00 00 7a 	mova	31232(r0),r15	;PC rel. 0x08386
     988:	02 00       	mova	@r0,	r2	;
     98a:	00 04       	bra	@r4		;
     98c:	00 93       	cmp	#0,	r0	;r3 As==00
     98e:	01 00       	mova	@r0,	r1	;
     990:	00 04       	bra	@r4		;
     992:	01 31       	jn	$+516    	;abs 0xb96
     994:	04 00       	mova	@r0,	r4	;
     996:	00 0c       	bra	@r12		;
     998:	35 05 00 00 	mova	0(r5),	r5	;
     99c:	66 05 00 00 	mova	r5,	&393216	; 0x60000
     9a0:	6c e2       	xor.b	#4,	r12	;r2 As==10
     9a2:	00 00       	beq			
     9a4:	68 04 00 00 	mova	r4,	&524288	; 0x80000
     9a8:	06 02       	mova	@r2,	r6	;
     9aa:	00 00       	beq			
     9ac:	02 cf       	bic	r15,	r2	;
     9ae:	05 00       	mova	@r0,	r5	;
     9b0:	00 02       	bra	@r2		;
     9b2:	28 30       	jn	$+82     	;abs 0xa04
     9b4:	00 00       	beq			
     9b6:	00 03       	bra	@r3		;
     9b8:	02 23       	jnz	$-506    	;abs 0x7be
     9ba:	05 00       	mova	@r0,	r5	;
     9bc:	00 02       	bra	@r2		;
     9be:	d6 05       	cmpa	r5,	r6	;
     9c0:	00 00       	beq			
     9c2:	02 63       	adc	r2		;
     9c4:	25 00 00 00 	mova	&0,	r5	;
     9c8:	04 01       	mova	@r1,	r4	;
     9ca:	08 c8       	bic	r8,	r8	;
     9cc:	02 00       	mova	@r0,	r2	;
     9ce:	00 05       	bra	@r5		;
     9d0:	5f 00       	rrcm	#1,	r15	;
     9d2:	00 00       	beq			
     9d4:	58 00       	rrcm	#1,	r8	;
     9d6:	00 00       	beq			
     9d8:	06 58       	add	r8,	r6	;
     9da:	00 00       	beq			
     9dc:	00 10       	rrc	r0		;
     9de:	00 04       	bra	@r4		;
     9e0:	02 07       	mova	@r7,	r2	;
     9e2:	63 00 00 00 	mova	r0,	&196608	; 0x30000
     9e6:	04 01       	mova	@r1,	r4	;
     9e8:	08 d1       	bis	r1,	r8	;
     9ea:	02 00       	mova	@r0,	r2	;
     9ec:	00 07       	bra	@r7		;
     9ee:	5f 00       	rrcm	#1,	r15	;
     9f0:	00 00       	beq			
     9f2:	08 68       	rlc	r8		;
     9f4:	65 78       	subc.b	@r8,	r5	;
     9f6:	00 01       	bra	@r1		;
     9f8:	05 48       	mov	r8,	r5	;
     9fa:	00 00       	beq			
     9fc:	00 05       	bra	@r5		;
     9fe:	03 02       	mova	@r2,	r3	;
     a00:	02 00       	mova	@r0,	r2	;
     a02:	00 09       	bra	@r9		;
     a04:	a6 05 00 00 	adda	#327680,r6	;0x50000
     a08:	01 68       	addc	r8,	r1	;
     a0a:	e0 e4 00 00 	xor.b	@r4,	0x0000	; PC rel. 0x0a0c
     a0e:	f4 01       	suba	r1,	r4	;
     a10:	00 00       	beq			
     a12:	01 9c       	cmp	r12,	r1	;
     a14:	c5 00       	mova	r0,	r5	;
     a16:	00 00       	beq			
     a18:	0a 66       	addc	r6,	r10	;
     a1a:	6d 74       	subc.b	@r4,	r13	;
     a1c:	00 01       	bra	@r1		;
     a1e:	68 c5       	bic.b	@r5,	r8	;
     a20:	00 00       	beq			
     a22:	00 02       	bra	@r2		;
     a24:	91 00 0b 08 	cmpa	#2059,	r1	;0x0080b
     a28:	76 00 01 69 	mova	r0,	26881(r6); 0x06901
     a2c:	36 00 00 00 	mova	0(r0),	r6	;
     a30:	02 91       	cmp	r1,	r2	;
     a32:	78 08 69 00 	mova	r8,	105(r8)	; 0x00069
     a36:	01 6a       	addc	r10,	r1	;
     a38:	cb 00       	mova	r0,	r11	;
     a3a:	00 00       	beq			
     a3c:	02 91       	cmp	r1,	r2	;
     a3e:	7a 08 73 00 	mova	r8,	115(r10); 0x00073
     a42:	01 6b       	addc	r11,	r1	;
     a44:	d2 00       	cmpa	r0,	r2	;
     a46:	00 00       	beq			
     a48:	02 91       	cmp	r1,	r2	;
     a4a:	7c 00 0c 02 	mova	r0,	524(r12); 0x0020c
     a4e:	66 00 00 00 	mova	r0,	&393216	; 0x60000
     a52:	0d 02       	mova	@r2,	r13	;
     a54:	05 69       	addc	r9,	r5	;
     a56:	6e 74       	subc.b	@r4,	r14	;
     a58:	00 0c       	bra	@r12		;
     a5a:	02 5f       	add	r15,	r2	;
     a5c:	00 00       	beq			
     a5e:	00 09       	bra	@r9		;
     a60:	c3 05       	mova	r5,	r3	;
     a62:	00 00       	beq			
     a64:	01 55       	add	r5,	r1	;
     a66:	2e e4       	xor	@r4,	r14	;
     a68:	00 00       	beq			
     a6a:	b2 00 00 00 	suba	#0,	r2	;
     a6e:	01 9c       	cmp	r12,	r1	;
     a70:	14 01       	mova	@r1+,	r4	;
     a72:	00 00       	beq			
     a74:	0a 6e       	addc	r14,	r10	;
     a76:	00 01       	bra	@r1		;
     a78:	55 cb 00 00 	bic.b	0(r11),	r5	;
     a7c:	00 02       	bra	@r2		;
     a7e:	91 66 08 62 	addc	25096(r6),26229(r1);0x06208, 0x6675
     a82:	75 66 
     a84:	00 01       	bra	@r1		;
     a86:	56 14       	pushm.a	#6,	r6	;20-bit words
     a88:	01 00       	mova	@r0,	r1	;
     a8a:	00 02       	bra	@r2		;
     a8c:	91 68 08 69 	addc	26888(r8),256(r1)	;0x06908, 0x0100
     a90:	00 01 
     a92:	57 cb 00 00 	bic.b	0(r11),	r7	;
     a96:	00 02       	bra	@r2		;
     a98:	91 7c 00 05 	subc	1280(r12),95(r1)	;0x00500, 0x005f
     a9c:	5f 00 
     a9e:	00 00       	beq			
     aa0:	24 01 00 00 	mova	&65536,	r4	;0x10000
     aa4:	06 58       	add	r8,	r6	;
     aa6:	00 00       	beq			
     aa8:	00 13       	reti			
     aaa:	00 09       	bra	@r9		;
     aac:	94 05 00 00 	cmpa	#327680,r4	;0x50000
     ab0:	01 47       	mov	r7,	r1	;
     ab2:	da e3 00 00 	xor.b	#1,	0(r10)	;r3 As==01
     ab6:	54 00       	rrcm	#1,	r4	;
     ab8:	00 00       	beq			
     aba:	01 9c       	cmp	r12,	r1	;
     abc:	60 01 00 00 	mova	r1,	&0	;
     ac0:	0e a0       	dadd	r0,	r14	;
     ac2:	05 00       	mova	@r0,	r5	;
     ac4:	00 01       	bra	@r1		;
     ac6:	47 d2       	bis.b	r2,	r7	;
     ac8:	00 00       	beq			
     aca:	00 02       	bra	@r2		;
     acc:	91 7a 0a 6e 	subc	28170(r10),256(r1)	;0x06e0a, 0x0100
     ad0:	00 01 
     ad2:	47 cb       	bic.b	r11,	r7	;
     ad4:	00 00       	beq			
     ad6:	00 02       	bra	@r2		;
     ad8:	91 78 08 69 	subc	26888(r8),256(r1)	;0x06908, 0x0100
     adc:	00 01 
     ade:	48 cb       	bic.b	r11,	r8	;
     ae0:	00 00       	beq			
     ae2:	00 02       	bra	@r2		;
     ae4:	91 7c 00 09 	subc	2304(r12),1300(r1);0x00900, 0x0514
     ae8:	14 05 
     aea:	00 00       	beq			
     aec:	01 37       	jge	$-508    	;abs 0x8f0
     aee:	72 e3       	xor.b	#-1,	r2	;r3 As==11
     af0:	00 00       	beq			
     af2:	68 00 00 00 	mova	r0,	&524288	; 0x80000
     af6:	01 9c       	cmp	r12,	r1	;
     af8:	9c 01 00 00 	cmpa	#65536,	r12	;0x10000
     afc:	0e a0       	dadd	r0,	r14	;
     afe:	05 00       	mova	@r0,	r5	;
     b00:	00 01       	bra	@r1		;
     b02:	37 d2       	bis	#8,	r7	;r2 As==11
     b04:	00 00       	beq			
     b06:	00 02       	bra	@r2		;
     b08:	91 7a 0a 6e 	subc	28170(r10),256(r1)	;0x06e0a, 0x0100
     b0c:	00 01 
     b0e:	37 cb       	bic	@r11+,	r7	;
     b10:	00 00       	beq			
     b12:	00 02       	bra	@r2		;
     b14:	91 78 08 69 	subc	26888(r8),256(r1)	;0x06908, 0x0100
     b18:	00 01 
     b1a:	38 cb       	bic	@r11+,	r8	;
     b1c:	00 00       	beq			
     b1e:	00 02       	bra	@r2		;
     b20:	91 7c 00 09 	subc	2304(r12),1454(r1);0x00900, 0x05ae
     b24:	ae 05 
     b26:	00 00       	beq			
     b28:	01 2f       	jc	$-508    	;abs 0x92c
     b2a:	26 e3       	xor	#2,	r6	;r3 As==10
     b2c:	00 00       	beq			
     b2e:	4c 00       	rrcm.a	#1,	r12	;
     b30:	00 00       	beq			
     b32:	01 9c       	cmp	r12,	r1	;
     b34:	be 01 00 00 	suba	#65536,	r14	;0x10000
     b38:	0a 6e       	addc	r14,	r10	;
     b3a:	00 01       	bra	@r1		;
     b3c:	2f be       	bit	@r14,	r15	;
     b3e:	01 00       	mova	@r0,	r1	;
     b40:	00 02       	bra	@r2		;
     b42:	91 7a 00 04 	subc	1024(r10),1284(r1);0x00400, 0x0504
     b46:	04 05 
     b48:	a4 00 00 00 	adda	#0,	r4	;
     b4c:	09 58       	add	r8,	r9	;
     b4e:	05 00       	mova	@r0,	r5	;
     b50:	00 01       	bra	@r1		;
     b52:	29 0a e3 00 	mova	&655587,r9	;0xa00e3
     b56:	00 1c 00 00 	beqx			
     b5a:	00 01       	bra	@r1		;
     b5c:	9c e7 01 00 	xor	1(r7),	2560(r12); 0x0a00
     b60:	00 0a 
     b62:	6e 00 01 29 	mova	r0,	&928001	; 0xe2901
     b66:	cb 00       	mova	r0,	r11	;
     b68:	00 00       	beq			
     b6a:	02 91       	cmp	r1,	r2	;
     b6c:	7c 00 09 47 	mova	r0,	18185(r12); 0x04709
     b70:	05 00       	mova	@r0,	r5	;
     b72:	00 01       	bra	@r1		;
     b74:	22 ca       	bic	@r10,	r2	;
     b76:	e2 00       	adda	r0,	r2	;
     b78:	00 40       	br	r0		;
     b7a:	00 00       	beq			
     b7c:	00 01       	bra	@r1		;
     b7e:	9c 15       	pushm	#10,	r12	;16-bit words
     b80:	02 00       	mova	@r0,	r2	;
     b82:	00 0a       	bra	@r10		;
     b84:	6e 00 01 22 	mova	r0,	&926209	; 0xe2201
     b88:	cb 00       	mova	r0,	r11	;
     b8a:	00 00       	beq			
     b8c:	02 91       	cmp	r1,	r2	;
     b8e:	7a 08 69 00 	mova	r8,	105(r10); 0x00069
     b92:	01 23       	jnz	$-508    	;abs 0x996
     b94:	cb 00       	mova	r0,	r11	;
     b96:	00 00       	beq			
     b98:	02 91       	cmp	r1,	r2	;
     b9a:	7c 00 09 06 	mova	r0,	1545(r12); 0x00609
     b9e:	05 00       	mova	@r0,	r5	;
     ba0:	00 01       	bra	@r1		;
     ba2:	1c ae e2 00 	dadd	226(r14),r12	;0x000e2
     ba6:	00 1c 00 00 	beqx			
     baa:	00 01       	bra	@r1		;
     bac:	9c 37       	jge	$-198    	;abs 0xae6
     bae:	02 00       	mova	@r0,	r2	;
     bb0:	00 0a       	bra	@r10		;
     bb2:	6e 00 01 1c 	mova	r0,	&924673	; 0xe1c01
     bb6:	cb 00       	mova	r0,	r11	;
     bb8:	00 00       	beq			
     bba:	02 91       	cmp	r1,	r2	;
     bbc:	7c 00 09 88 	mova	r0,	-30711(r12); 0xffff8809
     bc0:	05 00       	mova	@r0,	r5	;
     bc2:	00 01       	bra	@r1		;
     bc4:	17 94 e2 00 	cmp	226(r4),r7	;0x000e2
     bc8:	00 1a 00 00 	beqx			
     bcc:	00 01       	bra	@r1		;
     bce:	9c 59 02 00 	add	2(r9),	2560(r12); 0x0a00
     bd2:	00 0a 
     bd4:	6e 00 01 17 	mova	r0,	&923393	; 0xe1701
     bd8:	cb 00       	mova	r0,	r11	;
     bda:	00 00       	beq			
     bdc:	02 91       	cmp	r1,	r2	;
     bde:	7c 00 0f fd 	mova	r0,	-753(r12); 0xfffffd0f
     be2:	04 00       	mova	@r0,	r4	;
     be4:	00 01       	bra	@r1		;
     be6:	0b cb       	bic	r11,	r11	;
     be8:	00 00       	beq			
     bea:	00 6c       	addc	r12,	r0	;
     bec:	e2 00       	adda	r0,	r2	;
     bee:	00 28       	jnc	$+2      	;abs 0xbf0
     bf0:	00 00       	beq			
     bf2:	00 01       	bra	@r1		;
     bf4:	9c 0e bc 05 	cmpa	#918972,r12	;0xe05bc
     bf8:	00 00       	beq			
     bfa:	01 0b       	mova	@r11,	r1	;
     bfc:	cb 00       	mova	r0,	r11	;
     bfe:	00 00       	beq			
     c00:	02 91       	cmp	r1,	r2	;
     c02:	7c 00 00 ca 	mova	r0,	-13824(r12); 0xffffca00
     c06:	09 00       	mova	@r0,	r9	;
     c08:	00 04       	bra	@r4		;
     c0a:	00 59       	add	r9,	r0	;
     c0c:	02 00       	mova	@r0,	r2	;
     c0e:	00 04       	bra	@r4		;
     c10:	01 31       	jn	$+516    	;abs 0xe14
     c12:	04 00       	mova	@r0,	r4	;
     c14:	00 0c       	bra	@r12		;
     c16:	00 06       	bra	@r6		;
     c18:	00 00       	beq			
     c1a:	66 05 00 00 	mova	r5,	&393216	; 0x60000
	...
     c26:	59 05       	rram	#2,	r9	;
     c28:	00 00       	beq			
     c2a:	02 02       	mova	@r2,	r2	;
     c2c:	07 63       	adc	r7		;
     c2e:	00 00       	beq			
     c30:	00 02       	bra	@r2		;
     c32:	01 06       	mova	@r6,	r1	;
     c34:	ca 02       	mova	r2,	r10	;
     c36:	00 00       	beq			
     c38:	02 01       	mova	@r1,	r2	;
     c3a:	08 c8       	bic	r8,	r8	;
     c3c:	02 00       	mova	@r0,	r2	;
     c3e:	00 02       	bra	@r2		;
     c40:	02 05       	mova	@r5,	r2	;
     c42:	dc 02       	cmpa	r2,	r12	;
     c44:	00 00       	beq			
     c46:	02 02       	mova	@r2,	r2	;
     c48:	07 b1       	bit	r1,	r7	;
     c4a:	01 00       	mova	@r0,	r1	;
     c4c:	00 02       	bra	@r2		;
     c4e:	04 05       	mova	@r5,	r4	;
     c50:	a4 00 00 00 	adda	#0,	r4	;
     c54:	02 04       	mova	@r4,	r2	;
     c56:	07 5e       	add	r14,	r7	;
     c58:	00 00       	beq			
     c5a:	00 02       	bra	@r2		;
     c5c:	08 05       	mova	@r5,	r8	;
     c5e:	9f 00 00 00 	cmpa	#0,	r15	;
     c62:	02 08       	mova	@r8,	r2	;
     c64:	07 59       	add	r9,	r7	;
     c66:	00 00       	beq			
     c68:	00 03       	bra	@r3		;
     c6a:	02 05       	mova	@r5,	r2	;
     c6c:	69 6e       	addc.b	@r14,	r9	;
     c6e:	74 00 02 08 	mova	r0,	2050(r4); 0x00802
     c72:	04 52       	add	r2,	r4	;
     c74:	02 00       	mova	@r0,	r2	;
     c76:	00 04       	bra	@r4		;
     c78:	b6 02 00 00 	suba	#131072,r6	;0x20000
     c7c:	02 07       	mova	@r7,	r2	;
     c7e:	64 00 00 00 	mova	r0,	&262144	; 0x40000
     c82:	04 a5       	dadd	r5,	r4	;
     c84:	02 00       	mova	@r0,	r2	;
     c86:	00 03       	bra	@r3		;
     c88:	10 48 00 00 	br	0(r8)		;
     c8c:	00 04       	bra	@r4		;
     c8e:	84 03 00 00 	mova	#196608,r4	;0x30000
     c92:	03 27       	jz	$-504    	;abs 0xa9a
     c94:	48 00       	rrcm.a	#1,	r8	;
     c96:	00 00       	beq			
     c98:	05 fb       	and	r11,	r5	;
     c9a:	01 00       	mova	@r0,	r1	;
     c9c:	00 04       	bra	@r4		;
     c9e:	65 01 25 00 	mova	r1,	&327717	; 0x50025
     ca2:	00 00       	beq			
     ca4:	06 04       	mova	@r4,	r6	;
     ca6:	03 4a       	.word	0x4a03;	????
     ca8:	be 00 00 00 	suba	#0,	r14	;
     cac:	07 ee       	xor	r14,	r7	;
     cae:	01 00       	mova	@r0,	r1	;
     cb0:	00 03       	bra	@r3		;
     cb2:	4c 93       	cmp.b	#0,	r12	;r3 As==00
     cb4:	00 00       	beq			
     cb6:	00 07       	bra	@r7		;
     cb8:	8e 01 00 00 	mova	#65536,	r14	;0x10000
     cbc:	03 4d       	.word	0x4d03;	????
     cbe:	be 00 00 00 	suba	#0,	r14	;
     cc2:	00 08       	bra	@r8		;
     cc4:	33 00 00 00 	mova	0(r0),	r3	;
     cc8:	ce 00       	mova	r0,	r14	;
     cca:	00 00       	beq			
     ccc:	09 25       	jz	$+532    	;abs 0xee0
     cce:	00 00       	beq			
     cd0:	00 03       	bra	@r3		;
     cd2:	00 0a       	bra	@r10		;
     cd4:	06 03       	mova	@r3,	r6	;
     cd6:	47 ef       	xor.b	r15,	r7	;
     cd8:	00 00       	beq			
     cda:	00 0b       	bra	@r11		;
     cdc:	64 03 00 00 	mova	r3,	&262144	; 0x40000
     ce0:	03 49       	.word	0x4903;	????
     ce2:	64 00 00 00 	mova	r0,	&262144	; 0x40000
     ce6:	00 0b       	bra	@r11		;
     ce8:	6c 03 00 00 	mova	r3,	&786432	; 0xc0000
     cec:	03 4e       	.word	0x4e03;	????
     cee:	9f 00 00 00 	cmpa	#0,	r15	;
     cf2:	02 00       	mova	@r0,	r2	;
     cf4:	04 fe       	and	r14,	r4	;
     cf6:	02 00       	mova	@r0,	r2	;
     cf8:	00 03       	bra	@r3		;
     cfa:	4f ce       	bic.b	r14,	r15	;
     cfc:	00 00       	beq			
     cfe:	00 04       	bra	@r4		;
     d00:	47 01       	rram.a	#1,	r7	;
     d02:	00 00       	beq			
     d04:	03 53       	.word	0x5303;	????
     d06:	72 00 00 00 	mova	r0,	0(r2)	;
     d0a:	0c 02       	mova	@r2,	r12	;
     d0c:	04 dc       	bis	r12,	r4	;
     d0e:	03 00       	mova	@r0,	r3	;
     d10:	00 05       	bra	@r5		;
     d12:	16 4f 00 00 	mov	0(r15),	r6	;
     d16:	00 0d       	bra	@r13		;
     d18:	50 01       	rram	#1,	r0	;
     d1a:	00 00       	beq			
     d1c:	0e 05       	mova	@r5,	r14	;
     d1e:	2d 65       	addc	@r5,	r13	;
     d20:	01 00       	mova	@r0,	r1	;
     d22:	00 0b       	bra	@r11		;
     d24:	1f 03       	mova	@r3+,	r15	;
     d26:	00 00       	beq			
     d28:	05 2f       	jc	$-500    	;abs 0xb34
     d2a:	65 01 00 00 	mova	r1,	&327680	; 0x50000
     d2e:	00 0e       	bra	@r14		;
     d30:	5f 6b 00 05 	addc.b	1280(r11),r15	;0x00500
     d34:	30 64       	addc	@r4+,	r0	;
     d36:	00 00       	beq			
     d38:	00 02       	bra	@r2		;
     d3a:	0b 56       	add	r6,	r11	;
     d3c:	03 00       	mova	@r0,	r3	;
     d3e:	00 05       	bra	@r5		;
     d40:	30 64       	addc	@r4+,	r0	;
     d42:	00 00       	beq			
     d44:	00 04       	bra	@r4		;
     d46:	0b 41       	mov	r1,	r11	;
     d48:	01 00       	mova	@r0,	r1	;
     d4a:	00 05       	bra	@r5		;
     d4c:	30 64       	addc	@r4+,	r0	;
     d4e:	00 00       	beq			
     d50:	00 06       	bra	@r6		;
     d52:	0b 1c 04 00 	rpt #12 { movax	@r0,	r4	;
     d56:	00 05       	bra	@r5		;
     d58:	30 64       	addc	@r4+,	r0	;
     d5a:	00 00       	beq			
     d5c:	00 08       	bra	@r8		;
     d5e:	0e 5f       	add	r15,	r14	;
     d60:	78 00 05 31 	mova	r0,	12549(r8); 0x03105
     d64:	6b 01 00 00 	mova	r1,	&720896	; 0xb0000
     d68:	0a 00       	mova	@r0,	r10	;
     d6a:	0f 02       	mova	@r2,	r15	;
     d6c:	12 01       	mova	@r1+,	r2	;
     d6e:	00 00       	beq			
     d70:	08 07       	mova	@r7,	r8	;
     d72:	01 00       	mova	@r0,	r1	;
     d74:	00 7b       	subc	r11,	r0	;
     d76:	01 00       	mova	@r0,	r1	;
     d78:	00 09       	bra	@r9		;
     d7a:	25 00 00 00 	mova	&0,	r5	;
     d7e:	00 00       	beq			
     d80:	0d 77       	subc	r7,	r13	;
     d82:	01 00       	mova	@r0,	r1	;
     d84:	00 12       	push	r0		;
     d86:	05 35       	jge	$+524    	;abs 0xf92
     d88:	f4 01       	suba	r1,	r4	;
     d8a:	00 00       	beq			
     d8c:	0b 96       	cmp	r6,	r11	;
     d8e:	00 00       	beq			
     d90:	00 05       	bra	@r5		;
     d92:	37 64       	addc	@r4+,	r7	;
     d94:	00 00       	beq			
     d96:	00 00       	beq			
     d98:	0b 9a       	cmp	r10,	r11	;
     d9a:	03 00       	mova	@r0,	r3	;
     d9c:	00 05       	bra	@r5		;
     d9e:	38 64       	addc	@r4+,	r8	;
     da0:	00 00       	beq			
     da2:	00 02       	bra	@r2		;
     da4:	0b b9       	bit	r9,	r11	;
     da6:	00 00       	beq			
     da8:	00 05       	bra	@r5		;
     daa:	39 64       	addc	@r4+,	r9	;
     dac:	00 00       	beq			
     dae:	00 04       	bra	@r4		;
     db0:	0b f3       	and	#0,	r11	;r3 As==00
     db2:	04 00       	mova	@r0,	r4	;
     db4:	00 05       	bra	@r5		;
     db6:	3a 64       	addc	@r4+,	r10	;
     db8:	00 00       	beq			
     dba:	00 06       	bra	@r6		;
     dbc:	0b 7f       	subc	r15,	r11	;
     dbe:	02 00       	mova	@r0,	r2	;
     dc0:	00 05       	bra	@r5		;
     dc2:	3b 64       	addc	@r4+,	r11	;
     dc4:	00 00       	beq			
     dc6:	00 08       	bra	@r8		;
     dc8:	0b 1c 02 00 	rpt #12 { movax	@r0,	r2	;
     dcc:	00 05       	bra	@r5		;
     dce:	3c 64       	addc	@r4+,	r12	;
     dd0:	00 00       	beq			
     dd2:	00 0a       	bra	@r10		;
     dd4:	0b 21       	jnz	$+536    	;abs 0xfec
     dd6:	04 00       	mova	@r0,	r4	;
     dd8:	00 05       	bra	@r5		;
     dda:	3d 64       	addc	@r4+,	r13	;
     ddc:	00 00       	beq			
     dde:	00 0c       	bra	@r12		;
     de0:	0b e6       	xor	r6,	r11	;
     de2:	02 00       	mova	@r0,	r2	;
     de4:	00 05       	bra	@r5		;
     de6:	3e 64       	addc	@r4+,	r14	;
     de8:	00 00       	beq			
     dea:	00 0e       	bra	@r14		;
     dec:	0b a4       	dadd	r4,	r11	;
     dee:	04 00       	mova	@r0,	r4	;
     df0:	00 05       	bra	@r5		;
     df2:	3f 64       	addc	@r4+,	r15	;
     df4:	00 00       	beq			
     df6:	00 10       	rrc	r0		;
     df8:	00 0d       	bra	@r13		;
     dfa:	c8 00       	mova	r0,	r8	;
     dfc:	00 00       	beq			
     dfe:	88 05 48 31 	mova	#340296,r8	;0x53148
     e02:	02 00       	mova	@r0,	r2	;
     e04:	00 0b       	bra	@r11		;
     e06:	34 01 00 00 	mova	0(r1),	r4	;
     e0a:	05 49       	mov	r9,	r5	;
     e0c:	31 02 00 00 	mova	0(r2),	r1	;
     e10:	00 0b       	bra	@r11		;
     e12:	00 00       	beq			
     e14:	00 00       	beq			
     e16:	05 4a       	mov	r10,	r5	;
     e18:	31 02 00 00 	mova	0(r2),	r1	;
     e1c:	40 0b       	rrum.a	#3,	r0	;
     e1e:	c2 03       	mova	r3,	r2	;
     e20:	00 00       	beq			
     e22:	05 4c       	mov	r12,	r5	;
     e24:	07 01       	mova	@r1,	r7	;
     e26:	00 00       	beq			
     e28:	80 0b f4 00 	mova	#-327436,r0	;0xfffb00f4
     e2c:	00 00       	beq			
     e2e:	05 4f       	mov	r15,	r5	;
     e30:	07 01       	mova	@r1,	r7	;
     e32:	00 00       	beq			
     e34:	84 00 08 05 	mova	#1288,	r4	;0x00508
     e38:	01 00       	mova	@r0,	r1	;
     e3a:	00 41       	br	r1		;
     e3c:	02 00       	mova	@r0,	r2	;
     e3e:	00 09       	bra	@r9		;
     e40:	25 00 00 00 	mova	&0,	r5	;
     e44:	1f 00       	mova	@r0+,	r15	;
     e46:	0d 88       	sub	r8,	r13	;
     e48:	02 00       	mova	@r0,	r2	;
     e4a:	00 46       	br	r6		;
     e4c:	05 53       	add	#0,	r5	;r3 As==00
     e4e:	7e 02 00 00 	mova	r2,	0(r14)	;
     e52:	0b 1f 03 00 	rpt #12 { movax	@r0,	r3	;
     e56:	00 05       	bra	@r5		;
     e58:	54 7e 02 00 	subc.b	2(r14),	r4	;
     e5c:	00 00       	beq			
     e5e:	0b 37       	jge	$-488    	;abs 0xc76
     e60:	03 00       	mova	@r0,	r3	;
     e62:	00 05       	bra	@r5		;
     e64:	55 64 00 00 	addc.b	0(r4),	r5	;
     e68:	00 02       	bra	@r2		;
     e6a:	0b 3c       	jmp	$+24     	;abs 0xe82
     e6c:	01 00       	mova	@r0,	r1	;
     e6e:	00 05       	bra	@r5		;
     e70:	56 84 02 00 	sub.b	2(r4),	r6	;
     e74:	00 04       	bra	@r4		;
     e76:	0b 7c       	subc	r12,	r11	;
     e78:	01 00       	mova	@r0,	r1	;
     e7a:	00 05       	bra	@r5		;
     e7c:	57 9b 02 00 	cmp.b	2(r11),	r7	;
     e80:	00 44       	br	r4		;
     e82:	00 0f       	bra	@r15		;
     e84:	02 41       	mov	r1,	r2	;
     e86:	02 00       	mova	@r0,	r2	;
     e88:	00 08       	bra	@r8		;
     e8a:	94 02 00 00 	cmpa	#131072,r4	;0x20000
     e8e:	94 02 00 00 	cmpa	#131072,r4	;0x20000
     e92:	09 25       	jz	$+532    	;abs 0x10a6
     e94:	00 00       	beq			
     e96:	00 1f 00 0f 	brax	@r15		;
     e9a:	02 9a       	cmp	r10,	r2	;
     e9c:	02 00       	mova	@r0,	r2	;
     e9e:	00 10       	rrc	r0		;
     ea0:	0f 02       	mova	@r2,	r15	;
     ea2:	f4 01       	suba	r1,	r4	;
     ea4:	00 00       	beq			
     ea6:	0d f0       	and	r0,	r13	;
     ea8:	02 00       	mova	@r0,	r2	;
     eaa:	00 04       	bra	@r4		;
     eac:	05 73       	sbc	r5		;
     eae:	c6 02       	mova	r2,	r6	;
     eb0:	00 00       	beq			
     eb2:	0b b3       	bit	#0,	r11	;r3 As==00
     eb4:	00 00       	beq			
     eb6:	00 05       	bra	@r5		;
     eb8:	74 c6       	bic.b	@r6+,	r4	;
     eba:	02 00       	mova	@r0,	r2	;
     ebc:	00 00       	beq			
     ebe:	0b 0c       	mova	@r12,	r11	;
     ec0:	00 00       	beq			
     ec2:	00 05       	bra	@r5		;
     ec4:	75 64       	addc.b	@r4+,	r5	;
     ec6:	00 00       	beq			
     ec8:	00 02       	bra	@r2		;
     eca:	00 0f       	bra	@r15		;
     ecc:	02 33       	jn	$-506    	;abs 0xcd2
     ece:	00 00       	beq			
     ed0:	00 0d       	bra	@r13		;
     ed2:	9d 01 00 00 	cmpa	#65536,	r13	;0x10000
     ed6:	12 05       	mova	@r5+,	r2	;
     ed8:	97 36       	jge	$-720    	;abs 0xc08
     eda:	03 00       	mova	@r0,	r3	;
     edc:	00 0e       	bra	@r14		;
     ede:	5f 70 00 05 	subc.b	0x0500,	r15	;PC rel. 0x13e0
     ee2:	98 c6 02 00 	bic	2(r6),	0(r8)	;
     ee6:	00 00 
     ee8:	0e 5f       	add	r15,	r14	;
     eea:	72 00 05 99 	mova	r0,	-26363(r2); 0xffff9905
     eee:	64 00 00 00 	mova	r0,	&262144	; 0x40000
     ef2:	02 0e       	mova	@r14,	r2	;
     ef4:	5f 77 00 05 	subc.b	1280(r7),r15	;0x00500
     ef8:	9a 64 00 00 	addc	0(r4),	1024(r10); 0x0400
     efc:	00 04 
     efe:	0b ed       	xor	r13,	r11	;
     f00:	00 00       	beq			
     f02:	00 05       	bra	@r5		;
     f04:	9b 3a       	jl	$-712    	;abs 0xc3c
     f06:	00 00       	beq			
     f08:	00 06       	bra	@r6		;
     f0a:	0b 16       	popm.a	#1,	r11	;20-bit words
     f0c:	04 00       	mova	@r0,	r4	;
     f0e:	00 05       	bra	@r5		;
     f10:	9c 3a       	jl	$-710    	;abs 0xc4a
     f12:	00 00       	beq			
     f14:	00 08       	bra	@r8		;
     f16:	0e 5f       	add	r15,	r14	;
     f18:	62 66       	addc.b	@r6,	r2	;
     f1a:	00 05       	bra	@r5		;
     f1c:	9d a1 02 00 	dadd	2(r1),	2560(r13); 0x0a00
     f20:	00 0a 
     f22:	0b 70       	subc	r0,	r11	;
     f24:	00 00       	beq			
     f26:	00 05       	bra	@r5		;
     f28:	9e 64 00 00 	addc	0(r4),	3584(r14); 0x0e00
     f2c:	00 0e 
     f2e:	0b 2c       	jc	$+24     	;abs 0xf46
     f30:	00 00       	beq			
     f32:	00 05       	bra	@r5		;
     f34:	a0 81 04 00 	sub	@r1,	0x0004	; PC rel. 0x0f3a
     f38:	00 10       	rrc	r0		;
     f3a:	00 11       	rra	r0		;
     f3c:	cc 02       	mova	r2,	r12	;
     f3e:	00 00       	beq			
     f40:	12 d0 03 00 	bis	0x0003,	r2	;PC rel. 0x0f45
     f44:	00 78       	subc	r8,	r0	;
     f46:	05 72       	subc	r2,	r5	;
     f48:	01 81       	sub	r1,	r1	;
     f4a:	04 00       	mova	@r0,	r4	;
     f4c:	00 13       	reti			
     f4e:	93 03 00 00 	cmpa	#196608,r3	;0x30000
     f52:	05 76       	subc	r6,	r5	;
     f54:	01 64       	addc	r4,	r1	;
     f56:	00 00       	beq			
     f58:	00 00       	beq			
     f5a:	13 67       	.word	0x6713;	????
     f5c:	02 00       	mova	@r0,	r2	;
     f5e:	00 05       	bra	@r5		;
     f60:	7b 01 bb 06 	mova	r1,	1723(r11); 0x006bb
     f64:	00 00       	beq			
     f66:	02 13       	reti			;return from interupt
     f68:	77 02 00 00 	mova	r2,	0(r7)	;
     f6c:	05 7b       	subc	r11,	r5	;
     f6e:	01 bb       	bit	r11,	r1	;
     f70:	06 00       	mova	@r0,	r6	;
     f72:	00 04       	bra	@r4		;
     f74:	13 ce       	.word	0xce13;	????
     f76:	04 00       	mova	@r0,	r4	;
     f78:	00 05       	bra	@r5		;
     f7a:	7b 01 bb 06 	mova	r1,	1723(r11); 0x006bb
     f7e:	00 00       	beq			
     f80:	06 13       	reti			;return from interupt
     f82:	32 03 00 00 	mova	0(r3),	r2	;
     f86:	05 7d       	subc	r13,	r5	;
     f88:	01 64       	addc	r4,	r1	;
     f8a:	00 00       	beq			
     f8c:	00 08       	bra	@r8		;
     f8e:	13 1a 00 00 	rpt #4 { beqx			
     f92:	00 05       	bra	@r5		;
     f94:	7f 01 d4 05 	mova	r1,	1492(r15); 0x005d4
     f98:	00 00       	beq			
     f9a:	0a 13       	reti			;return from interupt
     f9c:	9a 02 00 00 	cmpa	#131072,r10	;0x20000
     fa0:	05 81       	sub	r1,	r5	;
     fa2:	01 64       	addc	r4,	r1	;
     fa4:	00 00       	beq			
     fa6:	00 0c       	bra	@r12		;
     fa8:	13 04       	mova	@r4+,	r3	;
     faa:	04 00       	mova	@r0,	r4	;
     fac:	00 05       	bra	@r5		;
     fae:	83 01 64 00 	mova	#65636,	r3	;0x10064
     fb2:	00 00       	beq			
     fb4:	0e 13       	reti			;return from interupt
     fb6:	3c 03 00 00 	mova	0(r3),	r12	;
     fba:	05 84       	sub	r4,	r5	;
     fbc:	01 0a       	mova	@r10,	r1	;
     fbe:	06 00       	mova	@r0,	r6	;
     fc0:	00 10       	rrc	r0		;
     fc2:	14 5f 6d 70 	add	28781(r15),r4	;0x0706d
     fc6:	00 05       	bra	@r5		;
     fc8:	86 01 08 08 	mova	#67592,	r6	;0x10808
     fcc:	00 00       	beq			
     fce:	12 13       	reti			;return from interupt
     fd0:	4c 03       	rrum.a	#1,	r12	;
     fd2:	00 00       	beq			
     fd4:	05 88       	sub	r8,	r5	;
     fd6:	01 19 08 00 	rpt #2 { movax	@r0,	r8	;
     fda:	00 14       	pushm.a	#1,	r0	;20-bit words
     fdc:	13 58       	.word	0x5813;	????
     fde:	01 00       	mova	@r0,	r1	;
     fe0:	00 05       	bra	@r5		;
     fe2:	8a 01 64 00 	mova	#65636,	r10	;0x10064
     fe6:	00 00       	beq			
     fe8:	16 13       	reti			;return from interupt
     fea:	95 01 00 00 	cmpa	#65536,	r5	;0x10000
     fee:	05 8d       	sub	r13,	r5	;
     ff0:	01 64       	addc	r4,	r1	;
     ff2:	00 00       	beq			
     ff4:	00 18 13 05 	movax	@r5+,	r3	;
     ff8:	01 00       	mova	@r0,	r1	;
     ffa:	00 05       	bra	@r5		;
     ffc:	8e 01 d4 05 	mova	#67028,	r14	;0x105d4
    1000:	00 00       	beq			
    1002:	1a 13       	reti			;return from interupt
    1004:	d6 04       	cmpa	r4,	r6	;
    1006:	00 00       	beq			
    1008:	05 90       	cmp	r0,	r5	;
    100a:	01 1f 08 00 	rpt #2 { movax	@r0,	r8	;
    100e:	00 1c 13 af 	.word	0x1c00, 0xaf13;	????	 Illegal as 2-op instr
    1012:	04 00       	mova	@r0,	r4	;
    1014:	00 05       	bra	@r5		;
    1016:	91 01 25 08 	cmpa	#67621,	r1	;0x10825
    101a:	00 00       	beq			
    101c:	1e 13       	reti			;return from interupt
    101e:	d9 01       	cmpa	r1,	r9	;
    1020:	00 00       	beq			
    1022:	05 92       	cmp	r2,	r5	;
    1024:	01 d4       	bis	r4,	r1	;
    1026:	05 00       	mova	@r0,	r5	;
    1028:	00 20       	jnz	$+2      	;abs 0x102a
    102a:	13 94       	.word	0x9413;	????
    102c:	04 00       	mova	@r0,	r4	;
    102e:	00 05       	bra	@r5		;
    1030:	95 01 36 08 	cmpa	#67638,	r5	;0x10836
    1034:	00 00       	beq			
    1036:	22 13       	reti			;return from interupt
    1038:	88 02 00 00 	mova	#131072,r8	;0x20000
    103c:	05 99       	cmp	r9,	r5	;
    103e:	01 7e       	subc	r14,	r1	;
    1040:	02 00       	mova	@r0,	r2	;
    1042:	00 24       	jz	$+2      	;abs 0x1044
    1044:	13 c4       	.word	0xc413;	????
    1046:	01 00       	mova	@r0,	r1	;
    1048:	00 05       	bra	@r5		;
    104a:	9a 01 41 02 	cmpa	#66113,	r10	;0x10241
    104e:	00 00       	beq			
    1050:	26 13       	reti			;return from interupt
    1052:	de 00       	cmpa	r0,	r14	;
    1054:	00 00       	beq			
    1056:	05 9d       	cmp	r13,	r5	;
    1058:	01 80       	sub	r0,	r1	;
    105a:	06 00       	mova	@r0,	r6	;
    105c:	00 6c       	addc	r12,	r0	;
    105e:	13 c3       	.word	0xc313;	????
    1060:	00 00       	beq			
    1062:	00 05       	bra	@r5		;
    1064:	9e 01 bb 06 	cmpa	#67259,	r14	;0x106bb
    1068:	00 00       	beq			
    106a:	72 13       	calla	@r2+		;
    106c:	4c 02       	rlam.a	#1,	r12	;
    106e:	00 00       	beq			
    1070:	05 9f       	cmp	r15,	r5	;
    1072:	01 42       	mov	r2,	r1	;
    1074:	08 00       	mova	@r0,	r8	;
    1076:	00 74       	subc	r4,	r0	;
    1078:	13 cd       	.word	0xcd13;	????
    107a:	01 00       	mova	@r0,	r1	;
    107c:	00 05       	bra	@r5		;
    107e:	a0 01 d4 05 	adda	#67028,	r0	;0x105d4
    1082:	00 00       	beq			
    1084:	76 00 0f 02 	mova	r0,	527(r6)	; 0x0020f
    1088:	3b 03 00 00 	mova	0(r3),	r11	;
    108c:	11 81 04 00 	sub	4(r1),	r1	;
    1090:	00 0d       	bra	@r13		;
    1092:	09 03       	mova	@r3,	r9	;
    1094:	00 00       	beq			
    1096:	3c 05 b3 b6 	mova	-18765(r5),r12	;0xffffb6b3
    109a:	05 00       	mova	@r0,	r5	;
    109c:	00 0e       	bra	@r14		;
    109e:	5f 70 00 05 	subc.b	0x0500,	r15	;PC rel. 0x15a0
    10a2:	b4 c6 02 00 	bic	@r6+,	2(r4)	;
    10a6:	00 00       	beq			
    10a8:	0e 5f       	add	r15,	r14	;
    10aa:	72 00 05 b5 	mova	r0,	-19195(r2); 0xffffb505
    10ae:	64 00 00 00 	mova	r0,	&262144	; 0x40000
    10b2:	02 0e       	mova	@r14,	r2	;
    10b4:	5f 77 00 05 	subc.b	1280(r7),r15	;0x00500
    10b8:	b6 64 00 00 	addc	@r4+,	0(r6)	;
    10bc:	00 04       	bra	@r4		;
    10be:	0b ed       	xor	r13,	r11	;
    10c0:	00 00       	beq			
    10c2:	00 05       	bra	@r5		;
    10c4:	b7 3a       	jl	$-656    	;abs 0xe34
    10c6:	00 00       	beq			
    10c8:	00 06       	bra	@r6		;
    10ca:	0b 16       	popm.a	#1,	r11	;20-bit words
    10cc:	04 00       	mova	@r0,	r4	;
    10ce:	00 05       	bra	@r5		;
    10d0:	b8 3a       	jl	$-654    	;abs 0xe42
    10d2:	00 00       	beq			
    10d4:	00 08       	bra	@r8		;
    10d6:	0e 5f       	add	r15,	r14	;
    10d8:	62 66       	addc.b	@r6,	r2	;
    10da:	00 05       	bra	@r5		;
    10dc:	b9 a1 02 00 	dadd	@r1+,	2(r9)	;
    10e0:	00 0a       	bra	@r10		;
    10e2:	0b 70       	subc	r0,	r11	;
    10e4:	00 00       	beq			
    10e6:	00 05       	bra	@r5		;
    10e8:	ba 64 00 00 	addc	@r4+,	0(r10)	;
    10ec:	00 0e       	bra	@r14		;
    10ee:	0b 2c       	jc	$+24     	;abs 0x1106
    10f0:	00 00       	beq			
    10f2:	00 05       	bra	@r5		;
    10f4:	bd 81 04 00 	sub	@r1+,	4(r13)	;
    10f8:	00 10       	rrc	r0		;
    10fa:	0b d6       	bis	r6,	r11	;
    10fc:	00 00       	beq			
    10fe:	00 05       	bra	@r5		;
    1100:	c1 05       	mova	r5,	r1	;
    1102:	01 00       	mova	@r0,	r1	;
    1104:	00 12       	push	r0		;
    1106:	0b 67       	addc	r7,	r11	;
    1108:	01 00       	mova	@r0,	r1	;
    110a:	00 05       	bra	@r5		;
    110c:	c3 e6 05 00 	xor.b	r6,	5(r3)	;
    1110:	00 14       	pushm.a	#1,	r0	;20-bit words
    1112:	0b 15       	pushm	#1,	r11	;16-bit words
    1114:	02 00       	mova	@r0,	r2	;
    1116:	00 05       	bra	@r5		;
    1118:	c5 10       	.word	0x10c5;	????
    111a:	06 00       	mova	@r0,	r6	;
    111c:	00 16       	popm.a	#1,	r0	;20-bit words
    111e:	0b 74       	subc	r4,	r11	;
    1120:	03 00       	mova	@r0,	r3	;
    1122:	00 05       	bra	@r5		;
    1124:	c8 34       	jge	$+402    	;abs 0x12b6
    1126:	06 00       	mova	@r0,	r6	;
    1128:	00 18 0b be 	bitx.?	r14,	r11	; Reserved use of A/L and B/W bits detected
    112c:	04 00       	mova	@r0,	r4	;
    112e:	00 05       	bra	@r5		;
    1130:	c9 4e 06 00 	mov.b	r14,	6(r9)	;
    1134:	00 1a 0e 5f 	addx.?	r15,	r14	; Reserved use of A/L and B/W bits detected
    1138:	75 62       	addc.b	#8,	r5	;r2 As==11
    113a:	00 05       	bra	@r5		;
    113c:	cc a1 02 00 	dadd.b	r1,	2(r12)	;
    1140:	00 1c 0e 5f 	addx.?	r15,	r14	; Reserved use of A/L and B/W bits detected
    1144:	75 70 00 05 	subc.b	#1280,	r5	;#0x0500
    1148:	cd c6 02 00 	bic.b	r6,	2(r13)	;
    114c:	00 20       	jnz	$+2      	;abs 0x114e
    114e:	0e 5f       	add	r15,	r14	;
    1150:	75 72       	subc.b	#8,	r5	;r2 As==11
    1152:	00 05       	bra	@r5		;
    1154:	ce 64 00 00 	addc.b	r4,	0(r14)	;
    1158:	00 22       	.word	0x2200;	????
    115a:	0b ad       	dadd	r13,	r11	;
    115c:	00 00       	beq			
    115e:	00 05       	bra	@r5		;
    1160:	d1 54 06 00 	add.b	6(r4),	9216(r1); 0x2400
    1164:	00 24 
    1166:	0b 9e       	cmp	r14,	r11	;
    1168:	04 00       	mova	@r0,	r4	;
    116a:	00 05       	bra	@r5		;
    116c:	d2 64 06 00 	addc.b	6(r4),	&0x2700	;
    1170:	00 27 
    1172:	0e 5f       	add	r15,	r14	;
    1174:	6c 62       	addc.b	#4,	r12	;r2 As==10
    1176:	00 05       	bra	@r5		;
    1178:	d5 a1 02 00 	dadd.b	2(r1),	10240(r5); 0x2800
    117c:	00 28 
    117e:	0b fc       	and	r12,	r11	;
    1180:	00 00       	beq			
    1182:	00 05       	bra	@r5		;
    1184:	d8 64 00 00 	addc.b	0(r4),	11264(r8); 0x2c00
    1188:	00 2c 
    118a:	0b 0d       	mova	@r13,	r11	;
    118c:	01 00       	mova	@r0,	r1	;
    118e:	00 05       	bra	@r5		;
    1190:	d9 7d 00 00 	subc.b	0(r13),	11776(r9); 0x2e00
    1194:	00 2e 
    1196:	0b 02       	mova	@r2,	r11	;
    1198:	02 00       	mova	@r0,	r2	;
    119a:	00 05       	bra	@r5		;
    119c:	e0 fa 00 00 	and.b	@r10,	0x0000	; PC rel. 0x119e
    11a0:	00 32       	.word	0x3200;	????
    11a2:	0b 11       	rra	r11		;
    11a4:	03 00       	mova	@r0,	r3	;
    11a6:	00 05       	bra	@r5		;
    11a8:	e2 ef 00 00 	xor.b	@r15,	&0x0000	;
    11ac:	00 34       	jge	$+2      	;abs 0x11ae
    11ae:	0b 08       	mova	@r8,	r11	;
    11b0:	02 00       	mova	@r0,	r2	;
    11b2:	00 05       	bra	@r5		;
    11b4:	e3 64 00 00 	addc.b	@r4,	0(r3)	;
    11b8:	00 3a       	.word	0x3a00;	????
    11ba:	00 15       	pushm	#1,	r0	;16-bit words
    11bc:	64 00 00 00 	mova	r0,	&262144	; 0x40000
    11c0:	d4 05       	cmpa	r5,	r4	;
    11c2:	00 00       	beq			
    11c4:	16 81 04 00 	sub	4(r1),	r6	;
    11c8:	00 16       	popm.a	#1,	r0	;20-bit words
    11ca:	05 01       	mova	@r1,	r5	;
    11cc:	00 00       	beq			
    11ce:	16 d4 05 00 	bis	5(r4),	r6	;
    11d2:	00 16       	popm.a	#1,	r0	;20-bit words
    11d4:	64 00 00 00 	mova	r0,	&262144	; 0x40000
    11d8:	00 0f       	bra	@r15		;
    11da:	02 da       	bis	r10,	r2	;
    11dc:	05 00       	mova	@r0,	r5	;
    11de:	00 02       	bra	@r2		;
    11e0:	01 08       	mova	@r8,	r1	;
    11e2:	d1 02       	cmpa	r2,	r1	;
    11e4:	00 00       	beq			
    11e6:	11 da 05 00 	bis	5(r10),	r1	;
    11ea:	00 0f       	bra	@r15		;
    11ec:	02 b6       	bit	r6,	r2	;
    11ee:	05 00       	mova	@r0,	r5	;
    11f0:	00 15       	pushm	#1,	r0	;16-bit words
    11f2:	64 00 00 00 	mova	r0,	&262144	; 0x40000
    11f6:	0a 06       	mova	@r6,	r10	;
    11f8:	00 00       	beq			
    11fa:	16 81 04 00 	sub	4(r1),	r6	;
    11fe:	00 16       	popm.a	#1,	r0	;20-bit words
    1200:	05 01       	mova	@r1,	r5	;
    1202:	00 00       	beq			
    1204:	16 0a       	mova	@r10+,	r6	;
    1206:	06 00       	mova	@r0,	r6	;
    1208:	00 16       	popm.a	#1,	r0	;20-bit words
    120a:	64 00 00 00 	mova	r0,	&262144	; 0x40000
    120e:	00 0f       	bra	@r15		;
    1210:	02 e1       	xor	r1,	r2	;
    1212:	05 00       	mova	@r0,	r5	;
    1214:	00 0f       	bra	@r15		;
    1216:	02 ec       	xor	r12,	r2	;
    1218:	05 00       	mova	@r0,	r5	;
    121a:	00 15       	pushm	#1,	r0	;16-bit words
    121c:	88 00 00 00 	mova	#0,	r8	;
    1220:	34 06 00 00 	mova	0(r6),	r4	;
    1224:	16 81 04 00 	sub	4(r1),	r6	;
    1228:	00 16       	popm.a	#1,	r0	;20-bit words
    122a:	05 01       	mova	@r1,	r5	;
    122c:	00 00       	beq			
    122e:	16 88 00 00 	sub	0(r8),	r6	;
    1232:	00 16       	popm.a	#1,	r0	;20-bit words
    1234:	64 00 00 00 	mova	r0,	&262144	; 0x40000
    1238:	00 0f       	bra	@r15		;
    123a:	02 16       	popm.a	#1,	r2	;20-bit words
    123c:	06 00       	mova	@r0,	r6	;
    123e:	00 15       	pushm	#1,	r0	;16-bit words
    1240:	64 00 00 00 	mova	r0,	&262144	; 0x40000
    1244:	4e 06       	rlam.a	#2,	r14	;
    1246:	00 00       	beq			
    1248:	16 81 04 00 	sub	4(r1),	r6	;
    124c:	00 16       	popm.a	#1,	r0	;20-bit words
    124e:	05 01       	mova	@r1,	r5	;
    1250:	00 00       	beq			
    1252:	00 0f       	bra	@r15		;
    1254:	02 3a       	jl	$-1018   	;abs 0xe5a
    1256:	06 00       	mova	@r0,	r6	;
    1258:	00 08       	bra	@r8		;
    125a:	33 00 00 00 	mova	0(r0),	r3	;
    125e:	64 06 00 00 	mova	r6,	&262144	; 0x40000
    1262:	09 25       	jz	$+532    	;abs 0x1476
    1264:	00 00       	beq			
    1266:	00 02       	bra	@r2		;
    1268:	00 08       	bra	@r8		;
    126a:	33 00 00 00 	mova	0(r0),	r3	;
    126e:	74 06 00 00 	mova	r6,	0(r4)	;
    1272:	09 25       	jz	$+532    	;abs 0x1486
    1274:	00 00       	beq			
    1276:	00 00       	beq			
    1278:	00 05       	bra	@r5		;
    127a:	f7 02       	suba	r2,	r7	;
    127c:	00 00       	beq			
    127e:	05 1d 01 8c 	rpt #6 { subx.?	r12,	r1	; Reserved use of A/L and B/W bits detected
    1282:	04 00       	mova	@r0,	r4	;
    1284:	00 12       	push	r0		;
    1286:	2b 04 00 00 	mova	&262144,r11	;0x40000
    128a:	06 05       	mova	@r5,	r6	;
    128c:	21 01 b5 06 	mova	&67253,	r1	;0x106b5
    1290:	00 00       	beq			
    1292:	13 1f 03 00 	rpt #4 { movax	@r0,	r3	;
    1296:	00 05       	bra	@r5		;
    1298:	23 01 b5 06 	mova	&67253,	r3	;0x106b5
    129c:	00 00       	beq			
    129e:	00 13       	reti			
    12a0:	aa 01 00 00 	adda	#65536,	r10	;0x10000
    12a4:	05 24       	jz	$+12     	;abs 0x12b0
    12a6:	01 64       	addc	r4,	r1	;
    12a8:	00 00       	beq			
    12aa:	00 02       	bra	@r2		;
    12ac:	13 d6       	.word	0xd613;	????
    12ae:	02 00       	mova	@r0,	r2	;
    12b0:	00 05       	bra	@r5		;
    12b2:	25 01 bb 06 	mova	&67259,	r5	;0x106bb
    12b6:	00 00       	beq			
    12b8:	04 00       	mova	@r0,	r4	;
    12ba:	0f 02       	mova	@r2,	r15	;
    12bc:	80 06 00 00 	mova	#393216,r0	;0x60000
    12c0:	0f 02       	mova	@r2,	r15	;
    12c2:	74 06 00 00 	mova	r6,	0(r4)	;
    12c6:	12 12 00 00 	push	&0x0000		;
    12ca:	00 16       	popm.a	#1,	r0	;20-bit words
    12cc:	05 3d       	jmp	$+524    	;abs 0x14d8
    12ce:	01 03       	mova	@r3,	r1	;
    12d0:	07 00       	mova	@r0,	r7	;
    12d2:	00 13       	reti			
    12d4:	5e 03       	rrum	#1,	r14	;
    12d6:	00 00       	beq			
    12d8:	05 3e       	jmp	$-1012   	;abs 0xee4
    12da:	01 03       	mova	@r3,	r1	;
    12dc:	07 00       	mova	@r0,	r7	;
    12de:	00 00       	beq			
    12e0:	13 af       	.word	0xaf13;	????
    12e2:	03 00       	mova	@r0,	r3	;
    12e4:	00 05       	bra	@r5		;
    12e6:	3f 01 03 07 	mova	1795(r1),r15	;0x00703
    12ea:	00 00       	beq			
    12ec:	06 13       	reti			;return from interupt
    12ee:	d7 03       	cmpa	r3,	r7	;
    12f0:	00 00       	beq			
    12f2:	05 40       	mov	r0,	r5	;
    12f4:	01 41       	mov	r1,	r1	;
    12f6:	00 00       	beq			
    12f8:	00 0c       	bra	@r12		;
    12fa:	13 1a 03 00 	rpt #4 { movax	@r0,	r3	;
    12fe:	00 05       	bra	@r5		;
    1300:	43 01       	rram.a	#1,	r3	;
    1302:	5d 00       	rrcm	#1,	r13	;
    1304:	00 00       	beq			
    1306:	0e 00       	mova	@r0,	r14	;
    1308:	08 41       	mov	r1,	r8	;
    130a:	00 00       	beq			
    130c:	00 13       	reti			
    130e:	07 00       	mova	@r0,	r7	;
    1310:	00 09       	bra	@r9		;
    1312:	25 00 00 00 	mova	&0,	r5	;
    1316:	02 00       	mova	@r0,	r2	;
    1318:	12 e6 00 00 	xor	0(r6),	r2	;
    131c:	00 08       	bra	@r8		;
    131e:	05 56       	add	r6,	r5	;
    1320:	01 55       	add	r5,	r1	;
    1322:	07 00       	mova	@r0,	r7	;
    1324:	00 13       	reti			
    1326:	e6 01       	adda	r1,	r6	;
    1328:	00 00       	beq			
    132a:	05 59       	add	r9,	r5	;
    132c:	01 65       	addc	r5,	r1	;
    132e:	01 00       	mova	@r0,	r1	;
    1330:	00 00       	beq			
    1332:	13 6d       	.word	0x6d13;	????
    1334:	01 00       	mova	@r0,	r1	;
    1336:	00 05       	bra	@r5		;
    1338:	5a 01       	rram	#1,	r10	;
    133a:	64 00 00 00 	mova	r0,	&262144	; 0x40000
    133e:	02 13       	reti			;return from interupt
    1340:	e9 04       	adda	r4,	r9	;
    1342:	00 00       	beq			
    1344:	05 5b       	add	r11,	r5	;
    1346:	01 65       	addc	r5,	r1	;
    1348:	01 00       	mova	@r0,	r1	;
    134a:	00 04       	bra	@r4		;
    134c:	13 ac       	.word	0xac13;	????
    134e:	02 00       	mova	@r0,	r2	;
    1350:	00 05       	bra	@r5		;
    1352:	5c 01       	rram	#1,	r12	;
    1354:	55 07       	rrum	#2,	r5	;
    1356:	00 00       	beq			
    1358:	06 00       	mova	@r0,	r6	;
    135a:	0f 02       	mova	@r2,	r15	;
    135c:	65 01 00 00 	mova	r1,	&327680	; 0x50000
    1360:	12 cb 03 00 	bic	3(r11),	r2	;
    1364:	00 3c       	jmp	$+2      	;abs 0x1366
    1366:	05 60       	addc	r0,	r5	;
    1368:	01 f8       	and	r8,	r1	;
    136a:	07 00       	mova	@r0,	r7	;
    136c:	00 13       	reti			
    136e:	b5 03 00 00 	suba	#196608,r5	;0x30000
    1372:	05 63       	adc	r5		;
    1374:	01 d4       	bis	r4,	r1	;
    1376:	05 00       	mova	@r0,	r5	;
    1378:	00 00       	beq			
    137a:	13 25       	jz	$+552    	;abs 0x15a2
    137c:	03 00       	mova	@r0,	r3	;
    137e:	00 05       	bra	@r5		;
    1380:	64 01 ef 00 	mova	r1,	&262383	; 0x400ef
    1384:	00 00       	beq			
    1386:	02 13       	reti			;return from interupt
    1388:	88 00 00 00 	mova	#0,	r8	;
    138c:	05 65       	rlc	r5		;
    138e:	01 ef       	xor	r15,	r1	;
    1390:	00 00       	beq			
    1392:	00 08       	bra	@r8		;
    1394:	13 db       	.word	0xdb13;	????
    1396:	04 00       	mova	@r0,	r4	;
    1398:	00 05       	bra	@r5		;
    139a:	66 01 ef 00 	mova	r1,	&393455	; 0x600ef
    139e:	00 00       	beq			
    13a0:	0e 13       	reti			;return from interupt
    13a2:	7a 03 00 00 	mova	r3,	0(r10)	;
    13a6:	05 67       	addc	r7,	r5	;
    13a8:	01 f8       	and	r8,	r1	;
    13aa:	07 00       	mova	@r0,	r7	;
    13ac:	00 14       	pushm.a	#1,	r0	;20-bit words
    13ae:	13 e4       	.word	0xe413;	????
    13b0:	03 00       	mova	@r0,	r3	;
    13b2:	00 05       	bra	@r5		;
    13b4:	68 01 64 00 	mova	r1,	&524388	; 0x80064
    13b8:	00 00       	beq			
    13ba:	1c 13       	reti			;return from interupt
    13bc:	26 01 00 00 	mova	&65536,	r6	;0x10000
    13c0:	05 69       	addc	r9,	r5	;
    13c2:	01 ef       	xor	r15,	r1	;
    13c4:	00 00       	beq			
    13c6:	00 1e 13 79 	.word	0x1e00, 0x7913;	????	 Illegal as 2-op instr
    13ca:	00 00       	beq			
    13cc:	00 05       	bra	@r5		;
    13ce:	6a 01 ef 00 	mova	r1,	&655599	; 0xa00ef
    13d2:	00 00       	beq			
    13d4:	24 13       	reti			;return from interupt
    13d6:	15 01       	mova	@r1+,	r5	;
    13d8:	00 00       	beq			
    13da:	05 6b       	addc	r11,	r5	;
    13dc:	01 ef       	xor	r15,	r1	;
    13de:	00 00       	beq			
    13e0:	00 2a       	.word	0x2a00;	????
    13e2:	13 32       	jn	$-984    	;abs 0x100a
    13e4:	00 00       	beq			
    13e6:	00 05       	bra	@r5		;
    13e8:	6c 01 ef 00 	mova	r1,	&786671	; 0xc00ef
    13ec:	00 00       	beq			
    13ee:	30 13       	reti			;return from interupt
    13f0:	41 00       	rrcm.a	#1,	r1	;
    13f2:	00 00       	beq			
    13f4:	05 6d       	addc	r13,	r5	;
    13f6:	01 ef       	xor	r15,	r1	;
    13f8:	00 00       	beq			
    13fa:	00 36       	.word	0x3600;	????
    13fc:	00 08       	bra	@r8		;
    13fe:	da 05       	cmpa	r5,	r10	;
    1400:	00 00       	beq			
    1402:	08 08       	mova	@r8,	r8	;
    1404:	00 00       	beq			
    1406:	09 25       	jz	$+532    	;abs 0x161a
    1408:	00 00       	beq			
    140a:	00 07       	bra	@r7		;
    140c:	00 0f       	bra	@r15		;
    140e:	02 13       	reti			;return from interupt
    1410:	07 00       	mova	@r0,	r7	;
    1412:	00 17       	popm	#1,	r0	;16-bit words
    1414:	19 08       	mova	@r8+,	r9	;
    1416:	00 00       	beq			
    1418:	16 81 04 00 	sub	4(r1),	r6	;
    141c:	00 00       	beq			
    141e:	0f 02       	mova	@r2,	r15	;
    1420:	0e 08       	mova	@r8,	r14	;
    1422:	00 00       	beq			
    1424:	0f 02       	mova	@r2,	r15	;
    1426:	c1 06       	mova	r6,	r1	;
    1428:	00 00       	beq			
    142a:	0f 02       	mova	@r2,	r15	;
    142c:	7b 01 00 00 	mova	r1,	0(r11)	;
    1430:	17 36       	jge	$-976    	;abs 0x1060
    1432:	08 00       	mova	@r0,	r8	;
    1434:	00 16       	popm.a	#1,	r0	;20-bit words
    1436:	64 00 00 00 	mova	r0,	&262144	; 0x40000
    143a:	00 0f       	bra	@r15		;
    143c:	02 3c       	jmp	$+6      	;abs 0x1442
    143e:	08 00       	mova	@r0,	r8	;
    1440:	00 0f       	bra	@r15		;
    1442:	02 2b       	jnc	$-506    	;abs 0x1248
    1444:	08 00       	mova	@r0,	r8	;
    1446:	00 0f       	bra	@r15		;
    1448:	02 5b       	add	r11,	r2	;
    144a:	07 00       	mova	@r0,	r7	;
    144c:	00 18 5e 02 	rlamx	#1,	r14	;
    1450:	00 00       	beq			
    1452:	05 a3       	dadc	r5		;
    1454:	01 36       	jge	$-1020   	;abs 0x1058
    1456:	03 00       	mova	@r0,	r3	;
    1458:	00 18 6e 02 	movax	r2,	&917504	; 0xe0000
    145c:	00 00 
    145e:	05 a4       	dadd	r4,	r5	;
    1460:	01 36       	jge	$-1020   	;abs 0x1064
    1462:	03 00       	mova	@r0,	r3	;
    1464:	00 18 c5 04 	movax	r4,	r5	;
    1468:	00 00       	beq			
    146a:	05 a5       	dadd	r5,	r5	;
    146c:	01 36       	jge	$-1020   	;abs 0x1070
    146e:	03 00       	mova	@r0,	r3	;
    1470:	00 18 f8 03 	subax	r3,	r8	;
    1474:	00 00       	beq			
    1476:	05 fd       	and	r13,	r5	;
    1478:	02 81       	sub	r1,	r2	;
    147a:	04 00       	mova	@r0,	r4	;
    147c:	00 18 f1 03 	subax	r3,	r1	;
    1480:	00 00       	beq			
    1482:	05 fe       	and	r14,	r5	;
    1484:	02 87       	sub	r7,	r2	;
    1486:	04 00       	mova	@r0,	r4	;
    1488:	00 0d       	bra	@r13		;
    148a:	a3 03 00 00 	adda	#196608,r3	;0x30000
    148e:	08 06       	mova	@r6,	r8	;
    1490:	0b bf       	bit	r15,	r11	;
    1492:	08 00       	mova	@r0,	r8	;
    1494:	00 0e       	bra	@r14		;
    1496:	73 74       	.word	0x7473;	????
    1498:	72 00 06 0c 	mova	r0,	3078(r2); 0x00c06
    149c:	c6 02       	mova	r2,	r6	;
    149e:	00 00       	beq			
    14a0:	00 0b       	bra	@r11		;
    14a2:	8c 03 00 00 	mova	#196608,r12	;0x30000
    14a6:	06 0d       	mova	@r13,	r6	;
    14a8:	25 00 00 00 	mova	&0,	r5	;
    14ac:	02 0b       	mova	@r11,	r2	;
    14ae:	10 02       	bra	@r2+		;
    14b0:	00 00       	beq			
    14b2:	06 0e       	mova	@r14,	r6	;
    14b4:	c6 08       	mova	r8,	r6	;
    14b6:	00 00       	beq			
    14b8:	04 0e       	mova	@r14,	r4	;
    14ba:	6e 00 06 0f 	mova	r0,	&921350	; 0xe0f06
    14be:	cc 08       	mova	r8,	r12	;
    14c0:	00 00       	beq			
    14c2:	06 00       	mova	@r0,	r6	;
    14c4:	19 c6 08 00 	bic	8(r6),	r9	;
    14c8:	00 1a 00 0f 	brax	@r15		;
    14cc:	02 bf       	bit	r15,	r2	;
    14ce:	08 00       	mova	@r0,	r8	;
    14d0:	00 0f       	bra	@r15		;
    14d2:	02 4f       	mov	r15,	r2	;
    14d4:	00 00       	beq			
    14d6:	00 04       	bra	@r4		;
    14d8:	e8 05       	adda	r5,	r8	;
    14da:	00 00       	beq			
    14dc:	06 11       	rra	r6		;
    14de:	dd 08       	cmpa	r8,	r13	;
    14e0:	00 00       	beq			
    14e2:	0f 02       	mova	@r2,	r15	;
    14e4:	84 08 00 00 	mova	#-524288,r4	;0xfff80000
    14e8:	08 4f       	mov	r15,	r8	;
    14ea:	00 00       	beq			
    14ec:	00 f3       	and	#0,	r0	;r3 As==00
    14ee:	08 00       	mova	@r0,	r8	;
    14f0:	00 09       	bra	@r9		;
    14f2:	25 00 00 00 	mova	&0,	r5	;
    14f6:	3f 00 1b de 	mova	-8677(r0),r15	;PC rel. 0xfffffffffffff313
    14fa:	05 00       	mova	@r0,	r5	;
    14fc:	00 01       	bra	@r1		;
    14fe:	03 e3       	.word	0xe303;	????
    1500:	08 00       	mova	@r0,	r8	;
    1502:	00 05       	bra	@r5		;
    1504:	03 e0       	.word	0xe003;	????
    1506:	fe 00       	suba	r0,	r14	;
    1508:	00 1c f3 05 	subax	r5,	r3	;
    150c:	00 00       	beq			
    150e:	01 4a       	mov	r10,	r1	;
    1510:	da 05       	cmpa	r5,	r10	;
    1512:	00 00       	beq			
    1514:	56 fd 00 00 	and.b	0(r13),	r6	;
    1518:	48 00       	rrcm.a	#1,	r8	;
    151a:	00 00       	beq			
    151c:	01 9c       	cmp	r12,	r1	;
    151e:	2c 09 00 00 	mova	&589824,r12	;0x90000
    1522:	1d a0 02 00 	dadd	0x0002,	r13	;PC rel. 0x1526
    1526:	00 01       	bra	@r1		;
    1528:	4a da       	bis.b	r10,	r10	;
    152a:	05 00       	mova	@r0,	r5	;
    152c:	00 02       	bra	@r2		;
    152e:	91 7d 00 1e 	subc	7680(r13),1550(r1);0x01e00, 0x060e
    1532:	0e 06 
    1534:	00 00       	beq			
    1536:	01 0e       	mova	@r14,	r1	;
    1538:	e0 fa 00 00 	and.b	@r10,	0x0000	; PC rel. 0x153a
    153c:	76 02 00 00 	mova	r2,	0(r6)	;
    1540:	01 9c       	cmp	r12,	r1	;
    1542:	1d a9 03 00 	dadd	3(r9),	r13	;
    1546:	00 01       	bra	@r1		;
    1548:	0e d2       	bis	r2,	r14	;
    154a:	08 00       	mova	@r0,	r8	;
    154c:	00 02       	bra	@r2		;
    154e:	91 68 1f 73 	addc	29471(r8),29300(r1);0x0731f, 0x7274
    1552:	74 72 
    1554:	00 01       	bra	@r1		;
    1556:	11 c6 02 00 	bic	2(r6),	r1	;
    155a:	00 02       	bra	@r2		;
    155c:	91 74 20 8c 	subc	-29664(r4),3(r1)	;0xffff8c20
    1560:	03 00 
    1562:	00 01       	bra	@r1		;
    1564:	12 25       	jz	$+550    	;abs 0x178a
    1566:	00 00       	beq			
    1568:	00 02       	bra	@r2		;
    156a:	91 72 20 0d 	subc	&0x0d20,0(r1)	;0x0d20
    156e:	00 00 
    1570:	00 01       	bra	@r1		;
    1572:	14 4f 00 00 	mov	0(r15),	r4	;
    1576:	00 02       	bra	@r2		;
    1578:	91 6e 1f 69 	addc	26911(r14),256(r1)	;0x0691f, 0x0100
    157c:	00 01 
    157e:	15 25       	jz	$+556    	;abs 0x17aa
    1580:	00 00       	beq			
    1582:	00 02       	bra	@r2		;
    1584:	91 7c 20 a0 	subc	-24544(r12),2(r1)	;0xffffa020
    1588:	02 00 
    158a:	00 01       	bra	@r1		;
    158c:	16 da 05 00 	bis	5(r10),	r6	;
    1590:	00 02       	bra	@r2		;
    1592:	91 7b 1f 69 	subc	26911(r11),110(r1)	;0x0691f, 0x006e
    1596:	6e 00 
    1598:	01 18 4f 00 	rpt #2 { rrcmx.a	#1,	r15	;
    159c:	00 00       	beq			
    159e:	02 91       	cmp	r1,	r2	;
    15a0:	6a 21       	jnz	$+726    	;abs 0x1876
    15a2:	e6 fb 00 00 	and.b	@r11,	0(r6)	;
    15a6:	7c 00 00 00 	mova	r0,	0(r12)	;
    15aa:	b6 09 00 00 	suba	#589824,r6	;0x90000
    15ae:	1f 6a 00 01 	addc	256(r10),r15	;0x00100
    15b2:	2c 25       	jz	$+602    	;abs 0x180c
    15b4:	00 00       	beq			
    15b6:	00 02       	bra	@r2		;
    15b8:	91 78 00 22 	subc	8704(r8),-840(r1);0x02200, 0xfcb8
    15bc:	b8 fc 
    15be:	00 00       	beq			
    15c0:	44 00       	rrcm.a	#1,	r4	;
    15c2:	00 00       	beq			
    15c4:	1f 6a 00 01 	addc	256(r10),r15	;0x00100
    15c8:	3c 25       	jz	$+634    	;abs 0x1842
    15ca:	00 00       	beq			
    15cc:	00 02       	bra	@r2		;
    15ce:	91 76 00 00 	Address 0x00000000000015d2 is out of bounds.
subc	0(r6),	-1(r1)	; 0xffff
    15d2:	00 00 

Disassembly of section .debug_abbrev:

00000000 <.debug_abbrev>:
   0:	01 11       	rra	r1		;
   2:	01 25       	jz	$+516    	;abs 0x206
   4:	0e 13       	reti			;return from interupt
   6:	0b 03       	mova	@r3,	r11	;
   8:	0e 1b 0e 11 	rpt #15 { rrax.?	r14		; Reserved use of A/L and B/W bits detected
   c:	01 12       	push	r1		;
   e:	06 10       	rrc	r6		;
  10:	17 00       	mova	@r0+,	r7	;
  12:	00 02       	bra	@r2		;
  14:	24 00 0b 0b 	mova	&2827,	r4	;0x00b0b
  18:	3e 0b 03 0e 	mova	3587(r11),r14	;0x00e03
  1c:	00 00       	beq			
  1e:	03 24       	jz	$+8      	;abs 0x26
  20:	00 0b       	bra	@r11		;
  22:	0b 3e       	jmp	$-1000   	;abs 0xfffffffffffffc3a
  24:	0b 03       	mova	@r3,	r11	;
  26:	08 00       	mova	@r0,	r8	;
  28:	00 04       	bra	@r4		;
  2a:	16 00       	mova	@r0+,	r6	;
  2c:	03 0e       	mova	@r14,	r3	;
  2e:	3a 0b 3b 0b 	mova	2875(r11),r10	;0x00b3b
  32:	49 13       	calla	r9		;
  34:	00 00       	beq			
  36:	05 16       	popm.a	#1,	r5	;20-bit words
  38:	00 03       	bra	@r3		;
  3a:	0e 3a       	jl	$-994    	;abs 0xfffffffffffffc58
  3c:	0b 3b       	jl	$-488    	;abs 0xfffffffffffffe54
  3e:	05 49       	mov	r9,	r5	;
  40:	13 00       	mova	@r0+,	r3	;
  42:	00 06       	bra	@r6		;
  44:	17 01       	mova	@r1+,	r7	;
  46:	0b 0b       	mova	@r11,	r11	;
  48:	3a 0b 3b 0b 	mova	2875(r11),r10	;0x00b3b
  4c:	01 13       	reti			;return from interupt
  4e:	00 00       	beq			
  50:	07 0d       	mova	@r13,	r7	;
  52:	00 03       	bra	@r3		;
  54:	0e 3a       	jl	$-994    	;abs 0xfffffffffffffc72
  56:	0b 3b       	jl	$-488    	;abs 0xfffffffffffffe6e
  58:	0b 49       	mov	r9,	r11	;
  5a:	13 00       	mova	@r0+,	r3	;
  5c:	00 08       	bra	@r8		;
  5e:	01 01       	mova	@r1,	r1	;
  60:	49 13       	calla	r9		;
  62:	01 13       	reti			;return from interupt
  64:	00 00       	beq			
  66:	09 21       	jnz	$+532    	;abs 0x27a
  68:	00 49       	br	r9		;
  6a:	13 2f       	jc	$-472    	;abs 0xfffffffffffffe92
  6c:	0b 00       	mova	@r0,	r11	;
  6e:	00 0a       	bra	@r10		;
  70:	13 01       	mova	@r1+,	r3	;
  72:	0b 0b       	mova	@r11,	r11	;
  74:	3a 0b 3b 0b 	mova	2875(r11),r10	;0x00b3b
  78:	01 13       	reti			;return from interupt
  7a:	00 00       	beq			
  7c:	0b 0d       	mova	@r13,	r11	;
  7e:	00 03       	bra	@r3		;
  80:	0e 3a       	jl	$-994    	;abs 0xfffffffffffffc9e
  82:	0b 3b       	jl	$-488    	;abs 0xfffffffffffffe9a
  84:	0b 49       	mov	r9,	r11	;
  86:	13 38       	jl	$+40     	;abs 0xae
  88:	0b 00       	mova	@r0,	r11	;
  8a:	00 0c       	bra	@r12		;
  8c:	0f 00       	mova	@r0,	r15	;
  8e:	0b 0b       	mova	@r11,	r11	;
  90:	00 00       	beq			
  92:	0d 13       	reti			;return from interupt
  94:	01 03       	mova	@r3,	r1	;
  96:	0e 0b       	mova	@r11,	r14	;
  98:	0b 3a       	jl	$-1000   	;abs 0xfffffffffffffcb0
  9a:	0b 3b       	jl	$-488    	;abs 0xfffffffffffffeb2
  9c:	0b 01       	mova	@r1,	r11	;
  9e:	13 00       	mova	@r0+,	r3	;
  a0:	00 0e       	bra	@r14		;
  a2:	0d 00       	mova	@r0,	r13	;
  a4:	03 08       	mova	@r8,	r3	;
  a6:	3a 0b 3b 0b 	mova	2875(r11),r10	;0x00b3b
  aa:	49 13       	calla	r9		;
  ac:	38 0b 00 00 	mova	0(r11),	r8	;
  b0:	0f 0f       	mova	@r15,	r15	;
  b2:	00 0b       	bra	@r11		;
  b4:	0b 49       	mov	r9,	r11	;
  b6:	13 00       	mova	@r0+,	r3	;
  b8:	00 10       	rrc	r0		;
  ba:	15 00       	mova	@r0+,	r5	;
  bc:	27 19 00 00 	rpt #8 { beqx			
  c0:	11 26       	jz	$-988    	;abs 0xfffffffffffffce4
  c2:	00 49       	br	r9		;
  c4:	13 00       	mova	@r0+,	r3	;
  c6:	00 12       	push	r0		;
  c8:	13 01       	mova	@r1+,	r3	;
  ca:	03 0e       	mova	@r14,	r3	;
  cc:	0b 0b       	mova	@r11,	r11	;
  ce:	3a 0b 3b 05 	mova	1339(r11),r10	;0x0053b
  d2:	01 13       	reti			;return from interupt
  d4:	00 00       	beq			
  d6:	13 0d       	mova	@r13+,	r3	;
  d8:	00 03       	bra	@r3		;
  da:	0e 3a       	jl	$-994    	;abs 0xfffffffffffffcf8
  dc:	0b 3b       	jl	$-488    	;abs 0xfffffffffffffef4
  de:	05 49       	mov	r9,	r5	;
  e0:	13 38       	jl	$+40     	;abs 0x108
  e2:	0b 00       	mova	@r0,	r11	;
  e4:	00 14       	pushm.a	#1,	r0	;20-bit words
  e6:	0d 00       	mova	@r0,	r13	;
  e8:	03 08       	mova	@r8,	r3	;
  ea:	3a 0b 3b 05 	mova	1339(r11),r10	;0x0053b
  ee:	49 13       	calla	r9		;
  f0:	38 0b 00 00 	mova	0(r11),	r8	;
  f4:	15 15       	pushm	#2,	r5	;16-bit words
  f6:	01 27       	jz	$-508    	;abs 0xfffffffffffffefa
  f8:	19 49 13 01 	mov	275(r9),r9	;0x00113
  fc:	13 00       	mova	@r0+,	r3	;
  fe:	00 16       	popm.a	#1,	r0	;20-bit words
 100:	05 00       	mova	@r0,	r5	;
 102:	49 13       	calla	r9		;
 104:	00 00       	beq			
 106:	17 15       	pushm	#2,	r7	;16-bit words
 108:	01 27       	jz	$-508    	;abs 0xffffffffffffff0c
 10a:	19 01       	mova	@r1+,	r9	;
 10c:	13 00       	mova	@r0+,	r3	;
 10e:	00 18 34 00 	movax	3587(r0),r4	;PC rel. 0x00f15
 112:	03 0e 
 114:	3a 0b 3b 05 	mova	1339(r11),r10	;0x0053b
 118:	49 13       	calla	r9		;
 11a:	3f 19 3c 19 	.word	0x193f, 0x193c;	????
 11e:	00 00       	beq			
 120:	19 15       	pushm	#2,	r9	;16-bit words
 122:	01 01       	mova	@r1,	r1	;
 124:	13 00       	mova	@r0+,	r3	;
 126:	00 1a 18 00 	movax	@r0+,	r8	;
 12a:	00 00       	beq			
 12c:	1b 34       	jge	$+56     	;abs 0x164
 12e:	00 03       	bra	@r3		;
 130:	0e 3a       	jl	$-994    	;abs 0xfffffffffffffd4e
 132:	0b 3b       	jl	$-488    	;abs 0xffffffffffffff4a
 134:	0b 49       	mov	r9,	r11	;
 136:	13 3f       	jmp	$-472    	;abs 0xffffffffffffff5e
 138:	19 3c       	jmp	$+52     	;abs 0x16c
 13a:	19 00       	mova	@r0+,	r9	;
 13c:	00 1c 2e 01 	movax	&71999,	r14	;0x1193f
 140:	3f 19 
 142:	03 0e       	mova	@r14,	r3	;
 144:	3a 0b 3b 0b 	mova	2875(r11),r10	;0x00b3b
 148:	27 19 49 13 	rpt #8 { callax	r9		;
 14c:	11 01       	mova	@r1+,	r1	;
 14e:	12 06       	mova	@r6+,	r2	;
 150:	40 18 96 42 	movx.w	&0x00119,19(r6)	; 0x00013
 154:	19 01 13 00 
 158:	00 1d 34 00 	movax	3587(r0),r4	;PC rel. 0x00f5f
 15c:	03 0e 
 15e:	3a 0b 3b 0b 	mova	2875(r11),r10	;0x00b3b
 162:	49 13       	calla	r9		;
 164:	02 18 00 00 	rpt #3 { beqx			
 168:	1e 0b       	mova	@r11+,	r14	;
 16a:	01 11       	rra	r1		;
 16c:	01 12       	push	r1		;
 16e:	06 01       	mova	@r1,	r6	;
 170:	13 00       	mova	@r0+,	r3	;
 172:	00 1f 34 00 	movax	2051(r0),r4	;PC rel. 0x00979
 176:	03 08 
 178:	3a 0b 3b 0b 	mova	2875(r11),r10	;0x00b3b
 17c:	49 13       	calla	r9		;
 17e:	02 18 00 00 	rpt #3 { beqx			
 182:	20 0b 01 11 	bra	&725249	;0xb1101
 186:	01 12       	push	r1		;
 188:	06 00       	mova	@r0,	r6	;
 18a:	00 21       	jnz	$+514    	;abs 0x38c
 18c:	01 01       	mova	@r1,	r1	;
 18e:	49 13       	calla	r9		;
 190:	00 00       	beq			
 192:	00 01       	bra	@r1		;
 194:	11 01       	mova	@r1+,	r1	;
 196:	25 0e 13 0b 	mova	&920339,r5	;0xe0b13
 19a:	03 0e       	mova	@r14,	r3	;
 19c:	1b 0e       	mova	@r14+,	r11	;
 19e:	11 01       	mova	@r1+,	r1	;
 1a0:	12 06       	mova	@r6+,	r2	;
 1a2:	10 17       	popm	#2,	r1	;16-bit words
 1a4:	00 00       	beq			
 1a6:	02 16       	popm.a	#1,	r2	;20-bit words
 1a8:	00 03       	bra	@r3		;
 1aa:	0e 3a       	jl	$-994    	;abs 0xfffffffffffffdc8
 1ac:	0b 3b       	jl	$-488    	;abs 0xffffffffffffffc4
 1ae:	0b 49       	mov	r9,	r11	;
 1b0:	13 00       	mova	@r0+,	r3	;
 1b2:	00 03       	bra	@r3		;
 1b4:	0f 00       	mova	@r0,	r15	;
 1b6:	0b 0b       	mova	@r11,	r11	;
 1b8:	03 0e       	mova	@r14,	r3	;
 1ba:	00 00       	beq			
 1bc:	04 24       	jz	$+10     	;abs 0x1c6
 1be:	00 0b       	bra	@r11		;
 1c0:	0b 3e       	jmp	$-1000   	;abs 0xfffffffffffffdd8
 1c2:	0b 03       	mova	@r3,	r11	;
 1c4:	0e 00       	mova	@r0,	r14	;
 1c6:	00 05       	bra	@r5		;
 1c8:	01 01       	mova	@r1,	r1	;
 1ca:	49 13       	calla	r9		;
 1cc:	01 13       	reti			;return from interupt
 1ce:	00 00       	beq			
 1d0:	06 21       	jnz	$+526    	;abs 0x3de
 1d2:	00 49       	br	r9		;
 1d4:	13 2f       	jc	$-472    	;abs 0xfffffffffffffffc
 1d6:	0b 00       	mova	@r0,	r11	;
 1d8:	00 07       	bra	@r7		;
 1da:	26 00 49 13 	mova	&4937,	r6	;0x01349
 1de:	00 00       	beq			
 1e0:	08 34       	jge	$+18     	;abs 0x1f2
 1e2:	00 03       	bra	@r3		;
 1e4:	08 3a       	jl	$-1006   	;abs 0xfffffffffffffdf6
 1e6:	0b 3b       	jl	$-488    	;abs 0xfffffffffffffffe
 1e8:	0b 49       	mov	r9,	r11	;
 1ea:	13 02       	mova	@r2+,	r3	;
 1ec:	18 00       	mova	@r0+,	r8	;
 1ee:	00 09       	bra	@r9		;
 1f0:	2e 01 3f 19 	mova	&71999,	r14	;0x1193f
 1f4:	03 0e       	mova	@r14,	r3	;
 1f6:	3a 0b 3b 0b 	mova	2875(r11),r10	;0x00b3b
 1fa:	27 19 11 01 	rpt #8 { movax	@r1+,	r1	;
 1fe:	12 06       	mova	@r6+,	r2	;
 200:	40 18 96 42 	movx.w	&0x00119,19(r6)	; 0x00013
 204:	19 01 13 00 
 208:	00 0a       	bra	@r10		;
 20a:	05 00       	mova	@r0,	r5	;
 20c:	03 08       	mova	@r8,	r3	;
 20e:	3a 0b 3b 0b 	mova	2875(r11),r10	;0x00b3b
 212:	49 13       	calla	r9		;
 214:	02 18 00 00 	rpt #3 { beqx			
 218:	0b 18 00 00 	rpt #12 { beqx			
 21c:	00 0c       	bra	@r12		;
 21e:	0f 00       	mova	@r0,	r15	;
 220:	0b 0b       	mova	@r11,	r11	;
 222:	49 13       	calla	r9		;
 224:	00 00       	beq			
 226:	0d 24       	jz	$+28     	;abs 0x242
 228:	00 0b       	bra	@r11		;
 22a:	0b 3e       	jmp	$-1000   	;abs 0xfffffffffffffe42
 22c:	0b 03       	mova	@r3,	r11	;
 22e:	08 00       	mova	@r0,	r8	;
 230:	00 0e       	bra	@r14		;
 232:	05 00       	mova	@r0,	r5	;
 234:	03 0e       	mova	@r14,	r3	;
 236:	3a 0b 3b 0b 	mova	2875(r11),r10	;0x00b3b
 23a:	49 13       	calla	r9		;
 23c:	02 18 00 00 	rpt #3 { beqx			
 240:	0f 2e       	jc	$-992    	;abs 0xfffffffffffffe60
 242:	01 03       	mova	@r3,	r1	;
 244:	0e 3a       	jl	$-994    	;abs 0xfffffffffffffe62
 246:	0b 3b       	jl	$-488    	;abs 0x5e
 248:	0b 27       	jz	$-488    	;abs 0x60
 24a:	19 49 13 11 	mov	4371(r9),r9	;0x01113
 24e:	01 12       	push	r1		;
 250:	06 40       	mov	r0,	r6	;
 252:	18 97 42 19 	cmp	6466(r7),r8	;0x01942
 256:	00 00       	beq			
 258:	00 01       	bra	@r1		;
 25a:	11 01       	mova	@r1+,	r1	;
 25c:	25 0e 13 0b 	mova	&920339,r5	;0xe0b13
 260:	03 0e       	mova	@r14,	r3	;
 262:	1b 0e       	mova	@r14+,	r11	;
 264:	55 17       	popm	#6,	r10	;16-bit words
 266:	11 01       	mova	@r1+,	r1	;
 268:	10 17       	popm	#2,	r1	;16-bit words
 26a:	00 00       	beq			
 26c:	02 24       	jz	$+6      	;abs 0x272
 26e:	00 0b       	bra	@r11		;
 270:	0b 3e       	jmp	$-1000   	;abs 0xfffffffffffffe88
 272:	0b 03       	mova	@r3,	r11	;
 274:	0e 00       	mova	@r0,	r14	;
 276:	00 03       	bra	@r3		;
 278:	24 00 0b 0b 	mova	&2827,	r4	;0x00b0b
 27c:	3e 0b 03 08 	mova	2051(r11),r14	;0x00803
 280:	00 00       	beq			
 282:	04 16       	popm.a	#1,	r4	;20-bit words
 284:	00 03       	bra	@r3		;
 286:	0e 3a       	jl	$-994    	;abs 0xfffffffffffffea4
 288:	0b 3b       	jl	$-488    	;abs 0xa0
 28a:	0b 49       	mov	r9,	r11	;
 28c:	13 00       	mova	@r0+,	r3	;
 28e:	00 05       	bra	@r5		;
 290:	16 00       	mova	@r0+,	r6	;
 292:	03 0e       	mova	@r14,	r3	;
 294:	3a 0b 3b 05 	mova	1339(r11),r10	;0x0053b
 298:	49 13       	calla	r9		;
 29a:	00 00       	beq			
 29c:	06 17       	popm	#1,	r6	;16-bit words
 29e:	01 0b       	mova	@r11,	r1	;
 2a0:	0b 3a       	jl	$-1000   	;abs 0xfffffffffffffeb8
 2a2:	0b 3b       	jl	$-488    	;abs 0xba
 2a4:	0b 01       	mova	@r1,	r11	;
 2a6:	13 00       	mova	@r0+,	r3	;
 2a8:	00 07       	bra	@r7		;
 2aa:	0d 00       	mova	@r0,	r13	;
 2ac:	03 0e       	mova	@r14,	r3	;
 2ae:	3a 0b 3b 0b 	mova	2875(r11),r10	;0x00b3b
 2b2:	49 13       	calla	r9		;
 2b4:	00 00       	beq			
 2b6:	08 01       	mova	@r1,	r8	;
 2b8:	01 49       	mov	r9,	r1	;
 2ba:	13 01       	mova	@r1+,	r3	;
 2bc:	13 00       	mova	@r0+,	r3	;
 2be:	00 09       	bra	@r9		;
 2c0:	21 00 49 13 	mova	&4937,	r1	;0x01349
 2c4:	2f 0b 00 00 	mova	&720896,r15	;0xb0000
 2c8:	0a 13       	reti			;return from interupt
 2ca:	01 0b       	mova	@r11,	r1	;
 2cc:	0b 3a       	jl	$-1000   	;abs 0xfffffffffffffee4
 2ce:	0b 3b       	jl	$-488    	;abs 0xe6
 2d0:	0b 01       	mova	@r1,	r11	;
 2d2:	13 00       	mova	@r0+,	r3	;
 2d4:	00 0b       	bra	@r11		;
 2d6:	0d 00       	mova	@r0,	r13	;
 2d8:	03 0e       	mova	@r14,	r3	;
 2da:	3a 0b 3b 0b 	mova	2875(r11),r10	;0x00b3b
 2de:	49 13       	calla	r9		;
 2e0:	38 0b 00 00 	mova	0(r11),	r8	;
 2e4:	0c 0f       	mova	@r15,	r12	;
 2e6:	00 0b       	bra	@r11		;
 2e8:	0b 00       	mova	@r0,	r11	;
 2ea:	00 0d       	bra	@r13		;
 2ec:	13 01       	mova	@r1+,	r3	;
 2ee:	03 0e       	mova	@r14,	r3	;
 2f0:	0b 0b       	mova	@r11,	r11	;
 2f2:	3a 0b 3b 0b 	mova	2875(r11),r10	;0x00b3b
 2f6:	01 13       	reti			;return from interupt
 2f8:	00 00       	beq			
 2fa:	0e 0d       	mova	@r13,	r14	;
 2fc:	00 03       	bra	@r3		;
 2fe:	08 3a       	jl	$-1006   	;abs 0xffffffffffffff10
 300:	0b 3b       	jl	$-488    	;abs 0x118
 302:	0b 49       	mov	r9,	r11	;
 304:	13 38       	jl	$+40     	;abs 0x32c
 306:	0b 00       	mova	@r0,	r11	;
 308:	00 0f       	bra	@r15		;
 30a:	0f 00       	mova	@r0,	r15	;
 30c:	0b 0b       	mova	@r11,	r11	;
 30e:	49 13       	calla	r9		;
 310:	00 00       	beq			
 312:	10 15       	pushm	#2,	r0	;16-bit words
 314:	00 27       	jz	$-510    	;abs 0x116
 316:	19 00       	mova	@r0+,	r9	;
 318:	00 11       	rra	r0		;
 31a:	26 00 49 13 	mova	&4937,	r6	;0x01349
 31e:	00 00       	beq			
 320:	12 13       	reti			;return from interupt
 322:	01 03       	mova	@r3,	r1	;
 324:	0e 0b       	mova	@r11,	r14	;
 326:	0b 3a       	jl	$-1000   	;abs 0xffffffffffffff3e
 328:	0b 3b       	jl	$-488    	;abs 0x140
 32a:	05 01       	mova	@r1,	r5	;
 32c:	13 00       	mova	@r0+,	r3	;
 32e:	00 13       	reti			
 330:	0d 00       	mova	@r0,	r13	;
 332:	03 0e       	mova	@r14,	r3	;
 334:	3a 0b 3b 05 	mova	1339(r11),r10	;0x0053b
 338:	49 13       	calla	r9		;
 33a:	38 0b 00 00 	mova	0(r11),	r8	;
 33e:	14 0d       	mova	@r13+,	r4	;
 340:	00 03       	bra	@r3		;
 342:	08 3a       	jl	$-1006   	;abs 0xffffffffffffff54
 344:	0b 3b       	jl	$-488    	;abs 0x15c
 346:	05 49       	mov	r9,	r5	;
 348:	13 38       	jl	$+40     	;abs 0x370
 34a:	0b 00       	mova	@r0,	r11	;
 34c:	00 15       	pushm	#1,	r0	;16-bit words
 34e:	15 01       	mova	@r1+,	r5	;
 350:	27 19 49 13 	rpt #8 { callax	r9		;
 354:	01 13       	reti			;return from interupt
 356:	00 00       	beq			
 358:	16 05       	mova	@r5+,	r6	;
 35a:	00 49       	br	r9		;
 35c:	13 00       	mova	@r0+,	r3	;
 35e:	00 17       	popm	#1,	r0	;16-bit words
 360:	15 01       	mova	@r1+,	r5	;
 362:	27 19 01 13 	rpt #8 { retix			;return from interupt
 366:	00 00       	beq			
 368:	18 34       	jge	$+50     	;abs 0x39a
 36a:	00 03       	bra	@r3		;
 36c:	0e 3a       	jl	$-994    	;abs 0xffffffffffffff8a
 36e:	0b 3b       	jl	$-488    	;abs 0x186
 370:	05 49       	mov	r9,	r5	;
 372:	13 3f       	jmp	$-472    	;abs 0x19a
 374:	19 3c       	jmp	$+52     	;abs 0x3a8
 376:	19 00       	mova	@r0+,	r9	;
 378:	00 19 15 01 	movax	@r1+,	r5	;
 37c:	01 13       	reti			;return from interupt
 37e:	00 00       	beq			
 380:	1a 18 00 00 	rpt #11 { beqx			
 384:	00 1b 34 00 	movax	3587(r0),r4	;PC rel. 0x0118b
 388:	03 0e 
 38a:	3a 0b 3b 0b 	mova	2875(r11),r10	;0x00b3b
 38e:	49 13       	calla	r9		;
 390:	3f 19 02 18 	.word	0x193f, 0x1802;	????
 394:	00 00       	beq			
 396:	1c 2e       	jc	$-966    	;abs 0xffffffffffffffd0
 398:	01 3f       	jmp	$-508    	;abs 0x19c
 39a:	19 03       	mova	@r3+,	r9	;
 39c:	0e 3a       	jl	$-994    	;abs 0xffffffffffffffba
 39e:	0b 3b       	jl	$-488    	;abs 0x1b6
 3a0:	0b 27       	jz	$-488    	;abs 0x1b8
 3a2:	19 49 13 11 	mov	4371(r9),r9	;0x01113
 3a6:	01 12       	push	r1		;
 3a8:	06 40       	mov	r0,	r6	;
 3aa:	18 97 42 19 	cmp	6466(r7),r8	;0x01942
 3ae:	01 13       	reti			;return from interupt
 3b0:	00 00       	beq			
 3b2:	1d 05       	mova	@r5+,	r13	;
 3b4:	00 03       	bra	@r3		;
 3b6:	0e 3a       	jl	$-994    	;abs 0xffffffffffffffd4
 3b8:	0b 3b       	jl	$-488    	;abs 0x1d0
 3ba:	0b 49       	mov	r9,	r11	;
 3bc:	13 02       	mova	@r2+,	r3	;
 3be:	18 00       	mova	@r0+,	r8	;
 3c0:	00 1e 2e 01 	movax	&71999,	r14	;0x1193f
 3c4:	3f 19 
 3c6:	03 0e       	mova	@r14,	r3	;
 3c8:	3a 0b 3b 0b 	mova	2875(r11),r10	;0x00b3b
 3cc:	27 19 11 01 	rpt #8 { movax	@r1+,	r1	;
 3d0:	12 06       	mova	@r6+,	r2	;
 3d2:	40 18 96 42 	movx.w	&0x00019,7936(r6); 0x01f00
 3d6:	19 00 00 1f 
 3da:	34 00 03 08 	mova	2051(r0),r4	;PC rel. 0x00bdf
 3de:	3a 0b 3b 0b 	mova	2875(r11),r10	;0x00b3b
 3e2:	49 13       	calla	r9		;
 3e4:	02 18 00 00 	rpt #3 { beqx			
 3e8:	20 34       	jge	$+66     	;abs 0x42a
 3ea:	00 03       	bra	@r3		;
 3ec:	0e 3a       	jl	$-994    	;abs 0xa
 3ee:	0b 3b       	jl	$-488    	;abs 0x206
 3f0:	0b 49       	mov	r9,	r11	;
 3f2:	13 02       	mova	@r2+,	r3	;
 3f4:	18 00       	mova	@r0+,	r8	;
 3f6:	00 21       	jnz	$+514    	;abs 0x5f8
 3f8:	0b 01       	mova	@r1,	r11	;
 3fa:	11 01       	mova	@r1+,	r1	;
 3fc:	12 06       	mova	@r6+,	r2	;
 3fe:	01 13       	reti			;return from interupt
 400:	00 00       	beq			
 402:	22 0b 01 11 	mova	&725249,r2	;0xb1101
 406:	01 12       	push	r1		;
 408:	06 00       	mova	@r0,	r6	;
	...

Disassembly of section .debug_line:

00000000 <L0>:
   0:	02 02       	mova	@r2,	r2	;
   2:	00 00       	beq			
   4:	02 00       	mova	@r0,	r2	;
   6:	50 01       	rram	#1,	r0	;
	...

0000000a <L0>:
   a:	01 01       	mova	@r1,	r1	;
   c:	fb 0e       	suba	r14,	r11	;
   e:	0d 00       	mova	@r0,	r13	;
  10:	01 01       	mova	@r1,	r1	;
  12:	01 01       	mova	@r1,	r1	;
  14:	00 00       	beq			
  16:	00 01       	bra	@r1		;
  18:	00 00       	beq			
  1a:	01 2f       	jc	$-508    	;abs 0xfffffffffffffe1e
  1c:	68 6f       	addc.b	@r15,	r8	;
  1e:	6d 65       	addc.b	@r5,	r13	;
  20:	2f 69       	addc	@r9,	r15	;
  22:	73 65       	.word	0x6573;	????
  24:	2f 44       	mov	@r4,	r15	;
  26:	65 73       	subc.b	#2,	r5	;r3 As==10
  28:	6b 74       	subc.b	@r4,	r11	;
  2a:	6f 70       	subc.b	@r0,	r15	;
  2c:	2f 74       	subc	@r4,	r15	;
  2e:	6d 70       	subc.b	@r0,	r13	;
  30:	2f 6d       	addc	@r13,	r15	;
  32:	73 70       	.word	0x7073;	????
  34:	34 33       	jn	$-406    	;abs 0xfffffffffffffe9e
  36:	30 2d       	jc	$+610    	;abs 0x298
  38:	67 63       	addc.b	#2,	r7	;r3 As==10
  3a:	63 2d       	jc	$+712    	;abs 0x302
  3c:	37 2e       	jc	$-912    	;abs 0xfffffffffffffcac
  3e:	33 2e       	jc	$-920    	;abs 0xfffffffffffffca6
  40:	31 2e       	jc	$-924    	;abs 0xfffffffffffffca4
  42:	32 34       	jge	$+102    	;abs 0xa8
  44:	5f 6c 69 6e 	addc.b	28265(r12),r15	;0x06e69
  48:	75 78       	subc.b	@r8+,	r5	;
  4a:	36 34       	jge	$+110    	;abs 0xb8
  4c:	2f 6d       	addc	@r13,	r15	;
  4e:	73 70       	.word	0x7073;	????
  50:	34 33       	jn	$-406    	;abs 0xfffffffffffffeba
  52:	30 2d       	jc	$+610    	;abs 0x2b4
  54:	65 6c       	addc.b	@r12,	r5	;
  56:	66 2f       	jc	$-306    	;abs 0xffffffffffffff24
  58:	69 6e       	addc.b	@r14,	r9	;
  5a:	63 6c       	.word	0x6c63;	????
  5c:	75 64       	addc.b	@r4+,	r5	;
  5e:	65 2f       	jc	$-308    	;abs 0xffffffffffffff2a
  60:	73 79       	.word	0x7973;	????
  62:	73 00 2f 68 	mova	r0,	26671(r3); 0x0682f
  66:	6f 6d       	addc.b	@r13,	r15	;
  68:	65 2f       	jc	$-308    	;abs 0xffffffffffffff34
  6a:	69 73       	subc.b	#2,	r9	;r3 As==10
  6c:	65 2f       	jc	$-308    	;abs 0xffffffffffffff38
  6e:	44 65       	addc.b	r5,	r4	;
  70:	73 6b       	.word	0x6b73;	????
  72:	74 6f       	addc.b	@r15+,	r4	;
  74:	70 2f       	jc	$-286    	;abs 0xffffffffffffff56
  76:	74 6d       	addc.b	@r13+,	r4	;
  78:	70 2f       	jc	$-286    	;abs 0xffffffffffffff5a
  7a:	6d 73       	subc.b	#2,	r13	;r3 As==10
  7c:	70 34       	jge	$+226    	;abs 0x15e
  7e:	33 30       	jn	$+104    	;abs 0xe6
  80:	2d 67       	addc	@r7,	r13	;
  82:	63 63       	.word	0x6363;	????
  84:	2d 37       	jge	$-420    	;abs 0xfffffffffffffee0
  86:	2e 33       	jn	$-418    	;abs 0xfffffffffffffee4
  88:	2e 31       	jn	$+606    	;abs 0x2e6
  8a:	2e 32       	jn	$-930    	;abs 0xfffffffffffffce8
  8c:	34 5f       	add	@r15+,	r4	;
  8e:	6c 69       	addc.b	@r9,	r12	;
  90:	6e 75       	subc.b	@r5,	r14	;
  92:	78 36       	jge	$-782    	;abs 0xfffffffffffffd84
  94:	34 2f       	jc	$-406    	;abs 0xfffffffffffffefe
  96:	6c 69       	addc.b	@r9,	r12	;
  98:	62 2f       	jc	$-314    	;abs 0xffffffffffffff5e
  9a:	67 63       	addc.b	#2,	r7	;r3 As==10
  9c:	63 2f       	jc	$-312    	;abs 0xffffffffffffff64
  9e:	6d 73       	subc.b	#2,	r13	;r3 As==10
  a0:	70 34       	jge	$+226    	;abs 0x182
  a2:	33 30       	jn	$+104    	;abs 0x10a
  a4:	2d 65       	addc	@r5,	r13	;
  a6:	6c 66       	addc.b	@r6,	r12	;
  a8:	2f 37       	jge	$-416    	;abs 0xffffffffffffff08
  aa:	2e 33       	jn	$-418    	;abs 0xffffffffffffff08
  ac:	2e 31       	jn	$+606    	;abs 0x30a
  ae:	2f 69       	addc	@r9,	r15	;
  b0:	6e 63       	addc.b	#2,	r14	;r3 As==10
  b2:	6c 75       	subc.b	@r5,	r12	;
  b4:	64 65       	addc.b	@r5,	r4	;
  b6:	00 2e       	.word	0x2e00;	????
  b8:	2e 2f       	jc	$-418    	;abs 0xffffffffffffff16
  ba:	6c 69       	addc.b	@r9,	r12	;
  bc:	62 73       	subc.b	#2,	r2	;r3 As==10
  be:	2f 73       	subc	#2,	r15	;r3 As==10
  c0:	6d 61       	addc.b	@r1,	r13	;
  c2:	72 74       	subc.b	@r4+,	r2	;
  c4:	00 2f       	jc	$-510    	;abs 0xfffffffffffffec6
  c6:	68 6f       	addc.b	@r15,	r8	;
  c8:	6d 65       	addc.b	@r5,	r13	;
  ca:	2f 69       	addc	@r9,	r15	;
  cc:	73 65       	.word	0x6573;	????
  ce:	2f 44       	mov	@r4,	r15	;
  d0:	65 73       	subc.b	#2,	r5	;r3 As==10
  d2:	6b 74       	subc.b	@r4,	r11	;
  d4:	6f 70       	subc.b	@r0,	r15	;
  d6:	2f 74       	subc	@r4,	r15	;
  d8:	6d 70       	subc.b	@r0,	r13	;
  da:	2f 6d       	addc	@r13,	r15	;
  dc:	73 70       	.word	0x7073;	????
  de:	34 33       	jn	$-406    	;abs 0xffffffffffffff48
  e0:	30 2d       	jc	$+610    	;abs 0x342
  e2:	67 63       	addc.b	#2,	r7	;r3 As==10
  e4:	63 2d       	jc	$+712    	;abs 0x3ac
  e6:	37 2e       	jc	$-912    	;abs 0xfffffffffffffd56
  e8:	33 2e       	jc	$-920    	;abs 0xfffffffffffffd50
  ea:	31 2e       	jc	$-924    	;abs 0xfffffffffffffd4e
  ec:	32 34       	jge	$+102    	;abs 0x152
  ee:	5f 6c 69 6e 	addc.b	28265(r12),r15	;0x06e69
  f2:	75 78       	subc.b	@r8+,	r5	;
  f4:	36 34       	jge	$+110    	;abs 0x162
  f6:	2f 6d       	addc	@r13,	r15	;
  f8:	73 70       	.word	0x7073;	????
  fa:	34 33       	jn	$-406    	;abs 0xffffffffffffff64
  fc:	30 2d       	jc	$+610    	;abs 0x35e
  fe:	65 6c       	addc.b	@r12,	r5	;
 100:	66 2f       	jc	$-306    	;abs 0xffffffffffffffce
 102:	69 6e       	addc.b	@r14,	r9	;
 104:	63 6c       	.word	0x6c63;	????
 106:	75 64       	addc.b	@r4+,	r5	;
 108:	65 00 00 6d 	mova	r0,	&355584	; 0x56d00
 10c:	61 69       	addc.b	@r9,	r1	;
 10e:	6e 2e       	jc	$-802    	;abs 0xfffffffffffffdec
 110:	63 00 00 00 	mova	r0,	&196608	; 0x30000
 114:	00 6c       	addc	r12,	r0	;
 116:	6f 63       	addc.b	#2,	r15	;r3 As==10
 118:	6b 2e       	jc	$-808    	;abs 0xfffffffffffffdf0
 11a:	68 00 01 00 	mova	r0,	&524289	; 0x80001
 11e:	00 5f       	add	r15,	r0	;
 120:	74 79       	subc.b	@r9+,	r4	;
 122:	70 65       	addc.b	@r5+,	r0	;
 124:	73 2e       	jc	$-792    	;abs 0xfffffffffffffe0c
 126:	68 00 01 00 	mova	r0,	&524289	; 0x80001
 12a:	00 73       	sbc	r0		;
 12c:	74 64       	addc.b	@r4+,	r4	;
 12e:	64 65       	addc.b	@r5,	r4	;
 130:	66 2e       	jc	$-818    	;abs 0xfffffffffffffdfe
 132:	68 00 02 00 	mova	r0,	&524290	; 0x80002
 136:	00 72       	subc	r2,	r0	;
 138:	65 65       	addc.b	@r5,	r5	;
 13a:	6e 74       	subc.b	@r4,	r14	;
 13c:	2e 68       	addc	@r8,	r14	;
 13e:	00 01       	bra	@r1		;
 140:	00 00       	beq			
 142:	73 6d       	.word	0x6d73;	????
 144:	61 72       	subc.b	#4,	r1	;r2 As==10
 146:	74 2e       	jc	$-790    	;abs 0xfffffffffffffe30
 148:	68 00 03 00 	mova	r0,	&524291	; 0x80003
 14c:	00 73       	sbc	r0		;
 14e:	74 64       	addc.b	@r4+,	r4	;
 150:	6c 69       	addc.b	@r9,	r12	;
 152:	62 2e       	jc	$-826    	;abs 0xfffffffffffffe18
 154:	68 00 04 00 	mova	r0,	&524292	; 0x80004
 158:	00 00       	beq			
 15a:	00 05       	bra	@r5		;
 15c:	02 8e       	sub	r14,	r2	;
 15e:	e1 00       	adda	r0,	r1	;
 160:	00 03       	bra	@r3		;
 162:	0c 01       	mova	@r1,	r12	;
 164:	03 02       	mova	@r2,	r3	;
 166:	09 04       	mova	@r4,	r9	;
 168:	00 01       	bra	@r1		;
 16a:	03 04       	mova	@r4,	r3	;
 16c:	09 12       	push	r9		;
 16e:	00 01       	bra	@r1		;
 170:	03 01       	mova	@r1,	r3	;
 172:	09 0e       	mova	@r14,	r9	;
 174:	00 01       	bra	@r1		;
 176:	03 01       	mova	@r1,	r3	;
 178:	09 06       	mova	@r6,	r9	;
 17a:	00 01       	bra	@r1		;
 17c:	03 01       	mova	@r1,	r3	;
 17e:	09 04       	mova	@r4,	r9	;
 180:	00 01       	bra	@r1		;
 182:	03 02       	mova	@r2,	r3	;
 184:	09 0e       	mova	@r14,	r9	;
 186:	00 01       	bra	@r1		;
 188:	03 02       	mova	@r2,	r3	;
 18a:	09 0a       	mova	@r10,	r9	;
 18c:	00 01       	bra	@r1		;
 18e:	03 01       	mova	@r1,	r3	;
 190:	09 0a       	mova	@r10,	r9	;
 192:	00 01       	bra	@r1		;
 194:	03 03       	mova	@r3,	r3	;
 196:	09 0a       	mova	@r10,	r9	;
 198:	00 01       	bra	@r1		;
 19a:	00 02       	bra	@r2		;
 19c:	04 03       	mova	@r3,	r4	;
 19e:	03 01       	mova	@r1,	r3	;
 1a0:	09 08       	mova	@r8,	r9	;
 1a2:	00 01       	bra	@r1		;
 1a4:	00 02       	bra	@r2		;
 1a6:	04 03       	mova	@r3,	r4	;
 1a8:	03 7f       	.word	0x7f03;	????
 1aa:	09 20       	jnz	$+20     	;abs 0x1be
 1ac:	00 01       	bra	@r1		;
 1ae:	00 02       	bra	@r2		;
 1b0:	04 01       	mova	@r1,	r4	;
 1b2:	06 03       	mova	@r3,	r6	;
 1b4:	00 09       	bra	@r9		;
 1b6:	04 00       	mova	@r0,	r4	;
 1b8:	01 06       	mova	@r6,	r1	;
 1ba:	03 04       	mova	@r4,	r3	;
 1bc:	09 0a       	mova	@r10,	r9	;
 1be:	00 01       	bra	@r1		;
 1c0:	03 02       	mova	@r2,	r3	;
 1c2:	09 08       	mova	@r8,	r9	;
 1c4:	00 01       	bra	@r1		;
 1c6:	00 02       	bra	@r2		;
 1c8:	04 03       	mova	@r3,	r4	;
 1ca:	03 01       	mova	@r1,	r3	;
 1cc:	09 08       	mova	@r8,	r9	;
 1ce:	00 01       	bra	@r1		;
 1d0:	00 02       	bra	@r2		;
 1d2:	04 03       	mova	@r3,	r4	;
 1d4:	03 01       	mova	@r1,	r3	;
 1d6:	09 12       	push	r9		;
 1d8:	00 01       	bra	@r1		;
 1da:	00 02       	bra	@r2		;
 1dc:	04 03       	mova	@r3,	r4	;
 1de:	03 7e       	.word	0x7e03;	????
 1e0:	09 10       	rrc	r9		;
 1e2:	00 01       	bra	@r1		;
 1e4:	00 02       	bra	@r2		;
 1e6:	04 01       	mova	@r1,	r4	;
 1e8:	06 03       	mova	@r3,	r6	;
 1ea:	00 09       	bra	@r9		;
 1ec:	04 00       	mova	@r0,	r4	;
 1ee:	01 06       	mova	@r6,	r1	;
 1f0:	03 04       	mova	@r4,	r3	;
 1f2:	09 0a       	mova	@r10,	r9	;
 1f4:	00 01       	bra	@r1		;
 1f6:	00 02       	bra	@r2		;
 1f8:	04 01       	mova	@r1,	r4	;
 1fa:	03 02       	mova	@r2,	r3	;
 1fc:	09 0a       	mova	@r10,	r9	;
 1fe:	00 01       	bra	@r1		;
 200:	09 04       	mova	@r4,	r9	;
 202:	00 00       	beq			
 204:	01 01       	mova	@r1,	r1	;

00000206 <L0>:
 206:	4f 03       	rrum.a	#1,	r15	;
 208:	00 00       	beq			
 20a:	02 00       	mova	@r0,	r2	;
 20c:	87 00 00 00 	mova	#0,	r7	;

00000210 <L0>:
 210:	01 01       	mova	@r1,	r1	;
 212:	fb 0e       	suba	r14,	r11	;
 214:	0d 00       	mova	@r0,	r13	;
 216:	01 01       	mova	@r1,	r1	;
 218:	01 01       	mova	@r1,	r1	;
 21a:	00 00       	beq			
 21c:	00 01       	bra	@r1		;
 21e:	00 00       	beq			
 220:	01 63       	adc	r1		;
 222:	70 72       	subc.b	#8,	r0	;r2 As==11
 224:	69 6e       	addc.b	@r14,	r9	;
 226:	74 66       	addc.b	@r6+,	r4	;
 228:	00 2f       	jc	$-510    	;abs 0x2a
 22a:	68 6f       	addc.b	@r15,	r8	;
 22c:	6d 65       	addc.b	@r5,	r13	;
 22e:	2f 69       	addc	@r9,	r15	;
 230:	73 65       	.word	0x6573;	????
 232:	2f 44       	mov	@r4,	r15	;
 234:	65 73       	subc.b	#2,	r5	;r3 As==10
 236:	6b 74       	subc.b	@r4,	r11	;
 238:	6f 70       	subc.b	@r0,	r15	;
 23a:	2f 74       	subc	@r4,	r15	;
 23c:	6d 70       	subc.b	@r0,	r13	;
 23e:	2f 6d       	addc	@r13,	r15	;
 240:	73 70       	.word	0x7073;	????
 242:	34 33       	jn	$-406    	;abs 0xac
 244:	30 2d       	jc	$+610    	;abs 0x4a6
 246:	67 63       	addc.b	#2,	r7	;r3 As==10
 248:	63 2d       	jc	$+712    	;abs 0x510
 24a:	37 2e       	jc	$-912    	;abs 0xfffffffffffffeba
 24c:	33 2e       	jc	$-920    	;abs 0xfffffffffffffeb4
 24e:	31 2e       	jc	$-924    	;abs 0xfffffffffffffeb2
 250:	32 34       	jge	$+102    	;abs 0x2b6
 252:	5f 6c 69 6e 	addc.b	28265(r12),r15	;0x06e69
 256:	75 78       	subc.b	@r8+,	r5	;
 258:	36 34       	jge	$+110    	;abs 0x2c6
 25a:	2f 6c       	addc	@r12,	r15	;
 25c:	69 62       	addc.b	#4,	r9	;r2 As==10
 25e:	2f 67       	addc	@r7,	r15	;
 260:	63 63       	.word	0x6363;	????
 262:	2f 6d       	addc	@r13,	r15	;
 264:	73 70       	.word	0x7073;	????
 266:	34 33       	jn	$-406    	;abs 0xd0
 268:	30 2d       	jc	$+610    	;abs 0x4ca
 26a:	65 6c       	addc.b	@r12,	r5	;
 26c:	66 2f       	jc	$-306    	;abs 0x13a
 26e:	37 2e       	jc	$-912    	;abs 0xfffffffffffffede
 270:	33 2e       	jc	$-920    	;abs 0xfffffffffffffed8
 272:	31 2f       	jc	$-412    	;abs 0xd6
 274:	69 6e       	addc.b	@r14,	r9	;
 276:	63 6c       	.word	0x6c63;	????
 278:	75 64       	addc.b	@r4+,	r5	;
 27a:	65 00 00 63 	mova	r0,	&353024	; 0x56300
 27e:	70 72       	subc.b	#8,	r0	;r2 As==11
 280:	69 6e       	addc.b	@r14,	r9	;
 282:	74 66       	addc.b	@r6+,	r4	;
 284:	2e 63       	addc	#2,	r14	;r3 As==10
 286:	00 01       	bra	@r1		;
 288:	00 00       	beq			
 28a:	73 74       	.word	0x7473;	????
 28c:	64 61       	addc.b	@r1,	r4	;
 28e:	72 67       	addc.b	@r7+,	r2	;
 290:	2e 68       	addc	@r8,	r14	;
 292:	00 02       	bra	@r2		;
 294:	00 00       	beq			
 296:	00 00       	beq			
 298:	05 02       	mova	@r2,	r5	;
 29a:	6c e2       	xor.b	#4,	r12	;r2 As==10
 29c:	00 00       	beq			
 29e:	03 0a       	mova	@r10,	r3	;
 2a0:	01 03       	mova	@r3,	r1	;
 2a2:	03 09       	mova	@r9,	r3	;
 2a4:	06 00       	mova	@r0,	r6	;
 2a6:	01 00       	mova	@r0,	r1	;
 2a8:	02 04       	mova	@r4,	r2	;
 2aa:	01 06       	mova	@r6,	r1	;
 2ac:	03 00       	mova	@r0,	r3	;
 2ae:	09 02       	mova	@r2,	r9	;
 2b0:	00 01       	bra	@r1		;
 2b2:	06 03       	mova	@r3,	r6	;
 2b4:	03 09       	mova	@r9,	r3	;
 2b6:	0c 00       	mova	@r0,	r12	;
 2b8:	01 03       	mova	@r3,	r1	;
 2ba:	02 09       	mova	@r9,	r2	;
 2bc:	0e 00       	mova	@r0,	r14	;
 2be:	01 03       	mova	@r3,	r1	;
 2c0:	01 09       	mova	@r9,	r1	;
 2c2:	02 00       	mova	@r0,	r2	;
 2c4:	01 03       	mova	@r3,	r1	;
 2c6:	03 09       	mova	@r9,	r3	;
 2c8:	04 00       	mova	@r0,	r4	;
 2ca:	01 03       	mova	@r3,	r1	;
 2cc:	01 09       	mova	@r9,	r1	;
 2ce:	06 00       	mova	@r0,	r6	;
 2d0:	01 03       	mova	@r3,	r1	;
 2d2:	01 09       	mova	@r9,	r1	;
 2d4:	0e 00       	mova	@r0,	r14	;
 2d6:	01 03       	mova	@r3,	r1	;
 2d8:	03 09       	mova	@r9,	r3	;
 2da:	06 00       	mova	@r0,	r6	;
 2dc:	01 03       	mova	@r3,	r1	;
 2de:	01 09       	mova	@r9,	r1	;
 2e0:	06 00       	mova	@r0,	r6	;
 2e2:	01 03       	mova	@r3,	r1	;
 2e4:	01 09       	mova	@r9,	r1	;
 2e6:	0a 00       	mova	@r0,	r10	;
 2e8:	01 03       	mova	@r3,	r1	;
 2ea:	01 09       	mova	@r9,	r1	;
 2ec:	06 00       	mova	@r0,	r6	;
 2ee:	01 03       	mova	@r3,	r1	;
 2f0:	03 09       	mova	@r9,	r3	;
 2f2:	06 00       	mova	@r0,	r6	;
 2f4:	01 03       	mova	@r3,	r1	;
 2f6:	02 09       	mova	@r9,	r2	;
 2f8:	06 00       	mova	@r0,	r6	;
 2fa:	01 03       	mova	@r3,	r1	;
 2fc:	01 09       	mova	@r9,	r1	;
 2fe:	0a 00       	mova	@r0,	r10	;
 300:	01 00       	mova	@r0,	r1	;
 302:	02 04       	mova	@r4,	r2	;
 304:	01 06       	mova	@r6,	r1	;
 306:	03 00       	mova	@r0,	r3	;
 308:	09 10       	rrc	r9		;
 30a:	00 01       	bra	@r1		;
 30c:	00 02       	bra	@r2		;
 30e:	04 02       	mova	@r2,	r4	;
 310:	03 00       	mova	@r0,	r3	;
 312:	09 08       	mova	@r8,	r9	;
 314:	00 01       	bra	@r1		;
 316:	00 02       	bra	@r2		;
 318:	04 04       	mova	@r4,	r4	;
 31a:	03 00       	mova	@r0,	r3	;
 31c:	09 04       	mova	@r4,	r9	;
 31e:	00 01       	bra	@r1		;
 320:	00 02       	bra	@r2		;
 322:	04 04       	mova	@r4,	r4	;
 324:	06 03       	mova	@r3,	r6	;
 326:	7f 09 04 00 	mova	r9,	4(r15)	;
 32a:	01 00       	mova	@r0,	r1	;
 32c:	02 04       	mova	@r4,	r2	;
 32e:	02 06       	mova	@r6,	r2	;
 330:	03 00       	mova	@r0,	r3	;
 332:	09 04       	mova	@r4,	r9	;
 334:	00 01       	bra	@r1		;
 336:	06 03       	mova	@r3,	r6	;
 338:	02 09       	mova	@r9,	r2	;
 33a:	06 00       	mova	@r0,	r6	;
 33c:	01 03       	mova	@r3,	r1	;
 33e:	03 09       	mova	@r9,	r3	;
 340:	06 00       	mova	@r0,	r6	;
 342:	01 03       	mova	@r3,	r1	;
 344:	01 09       	mova	@r9,	r1	;
 346:	06 00       	mova	@r0,	r6	;
 348:	01 03       	mova	@r3,	r1	;
 34a:	01 09       	mova	@r9,	r1	;
 34c:	0a 00       	mova	@r0,	r10	;
 34e:	01 03       	mova	@r3,	r1	;
 350:	01 09       	mova	@r9,	r1	;
 352:	06 00       	mova	@r0,	r6	;
 354:	01 03       	mova	@r3,	r1	;
 356:	03 09       	mova	@r9,	r3	;
 358:	06 00       	mova	@r0,	r6	;
 35a:	01 03       	mova	@r3,	r1	;
 35c:	01 09       	mova	@r9,	r1	;
 35e:	0a 00       	mova	@r0,	r10	;
 360:	01 03       	mova	@r3,	r1	;
 362:	01 09       	mova	@r9,	r1	;
 364:	14 00       	mova	@r0+,	r4	;
 366:	01 03       	mova	@r3,	r1	;
 368:	01 09       	mova	@r9,	r1	;
 36a:	14 00       	mova	@r0+,	r4	;
 36c:	01 03       	mova	@r3,	r1	;
 36e:	01 09       	mova	@r9,	r1	;
 370:	0e 00       	mova	@r0,	r14	;
 372:	01 03       	mova	@r3,	r1	;
 374:	01 09       	mova	@r9,	r1	;
 376:	06 00       	mova	@r0,	r6	;
 378:	01 03       	mova	@r3,	r1	;
 37a:	03 09       	mova	@r9,	r3	;
 37c:	06 00       	mova	@r0,	r6	;
 37e:	01 03       	mova	@r3,	r1	;
 380:	01 09       	mova	@r9,	r1	;
 382:	0c 00       	mova	@r0,	r12	;
 384:	01 03       	mova	@r3,	r1	;
 386:	01 09       	mova	@r9,	r1	;
 388:	04 00       	mova	@r0,	r4	;
 38a:	01 03       	mova	@r3,	r1	;
 38c:	02 09       	mova	@r9,	r2	;
 38e:	04 00       	mova	@r0,	r4	;
 390:	01 03       	mova	@r3,	r1	;
 392:	01 09       	mova	@r9,	r1	;
 394:	12 00       	mova	@r0+,	r2	;
 396:	01 03       	mova	@r3,	r1	;
 398:	02 09       	mova	@r9,	r2	;
 39a:	0a 00       	mova	@r0,	r10	;
 39c:	01 03       	mova	@r3,	r1	;
 39e:	01 09       	mova	@r9,	r1	;
 3a0:	04 00       	mova	@r0,	r4	;
 3a2:	01 03       	mova	@r3,	r1	;
 3a4:	01 09       	mova	@r9,	r1	;
 3a6:	0c 00       	mova	@r0,	r12	;
 3a8:	01 03       	mova	@r3,	r1	;
 3aa:	02 09       	mova	@r9,	r2	;
 3ac:	0c 00       	mova	@r0,	r12	;
 3ae:	01 03       	mova	@r3,	r1	;
 3b0:	77 09 08 00 	mova	r9,	8(r7)	;
 3b4:	01 03       	mova	@r3,	r1	;
 3b6:	0b 09       	mova	@r9,	r11	;
 3b8:	06 00       	mova	@r0,	r6	;
 3ba:	01 03       	mova	@r3,	r1	;
 3bc:	79 09 04 00 	mova	r9,	4(r9)	;
 3c0:	01 03       	mova	@r3,	r1	;
 3c2:	07 09       	mova	@r9,	r7	;
 3c4:	02 00       	mova	@r0,	r2	;
 3c6:	01 03       	mova	@r3,	r1	;
 3c8:	03 09       	mova	@r9,	r3	;
 3ca:	08 00       	mova	@r0,	r8	;
 3cc:	01 03       	mova	@r3,	r1	;
 3ce:	01 09       	mova	@r9,	r1	;
 3d0:	0c 00       	mova	@r0,	r12	;
 3d2:	01 03       	mova	@r3,	r1	;
 3d4:	01 09       	mova	@r9,	r1	;
 3d6:	04 00       	mova	@r0,	r4	;
 3d8:	01 03       	mova	@r3,	r1	;
 3da:	02 09       	mova	@r9,	r2	;
 3dc:	04 00       	mova	@r0,	r4	;
 3de:	01 03       	mova	@r3,	r1	;
 3e0:	01 09       	mova	@r9,	r1	;
 3e2:	0a 00       	mova	@r0,	r10	;
 3e4:	01 03       	mova	@r3,	r1	;
 3e6:	02 09       	mova	@r9,	r2	;
 3e8:	0a 00       	mova	@r0,	r10	;
 3ea:	01 03       	mova	@r3,	r1	;
 3ec:	01 09       	mova	@r9,	r1	;
 3ee:	04 00       	mova	@r0,	r4	;
 3f0:	01 03       	mova	@r3,	r1	;
 3f2:	01 09       	mova	@r9,	r1	;
 3f4:	0c 00       	mova	@r0,	r12	;
 3f6:	01 03       	mova	@r3,	r1	;
 3f8:	79 09 08 00 	mova	r9,	8(r9)	;
 3fc:	01 03       	mova	@r3,	r1	;
 3fe:	09 09       	mova	@r9,	r9	;
 400:	06 00       	mova	@r0,	r6	;
 402:	01 03       	mova	@r3,	r1	;
 404:	7b 09 04 00 	mova	r9,	4(r11)	;
 408:	01 03       	mova	@r3,	r1	;
 40a:	05 09       	mova	@r9,	r5	;
 40c:	02 00       	mova	@r0,	r2	;
 40e:	01 03       	mova	@r3,	r1	;
 410:	03 09       	mova	@r9,	r3	;
 412:	08 00       	mova	@r0,	r8	;
 414:	01 03       	mova	@r3,	r1	;
 416:	02 09       	mova	@r9,	r2	;
 418:	08 00       	mova	@r0,	r8	;
 41a:	01 03       	mova	@r3,	r1	;
 41c:	01 09       	mova	@r9,	r1	;
 41e:	04 00       	mova	@r0,	r4	;
 420:	01 03       	mova	@r3,	r1	;
 422:	02 09       	mova	@r9,	r2	;
 424:	06 00       	mova	@r0,	r6	;
 426:	01 03       	mova	@r3,	r1	;
 428:	01 09       	mova	@r9,	r1	;
 42a:	08 00       	mova	@r0,	r8	;
 42c:	01 03       	mova	@r3,	r1	;
 42e:	02 09       	mova	@r9,	r2	;
 430:	08 00       	mova	@r0,	r8	;
 432:	01 03       	mova	@r3,	r1	;
 434:	02 09       	mova	@r9,	r2	;
 436:	04 00       	mova	@r0,	r4	;
 438:	01 03       	mova	@r3,	r1	;
 43a:	01 09       	mova	@r9,	r1	;
 43c:	28 00 01 03 	mova	&769,	r8	;0x00301
 440:	7d 09 0e 00 	mova	r9,	14(r13)	; 0x0000e
 444:	01 03       	mova	@r3,	r1	;
 446:	05 09       	mova	@r9,	r5	;
 448:	08 00       	mova	@r0,	r8	;
 44a:	01 03       	mova	@r3,	r1	;
 44c:	01 09       	mova	@r9,	r1	;
 44e:	28 00 01 03 	mova	&769,	r8	;0x00301
 452:	01 09       	mova	@r9,	r1	;
 454:	04 00       	mova	@r0,	r4	;
 456:	01 03       	mova	@r3,	r1	;
 458:	7f 09 12 00 	mova	r9,	18(r15)	; 0x00012
 45c:	01 03       	mova	@r3,	r1	;
 45e:	02 09       	mova	@r9,	r2	;
 460:	08 00       	mova	@r0,	r8	;
 462:	01 03       	mova	@r3,	r1	;
 464:	03 09       	mova	@r9,	r3	;
 466:	08 00       	mova	@r0,	r8	;
 468:	01 03       	mova	@r3,	r1	;
 46a:	05 09       	mova	@r9,	r5	;
 46c:	04 00       	mova	@r0,	r4	;
 46e:	01 03       	mova	@r3,	r1	;
 470:	02 09       	mova	@r9,	r2	;
 472:	0a 00       	mova	@r0,	r10	;
 474:	01 03       	mova	@r3,	r1	;
 476:	01 09       	mova	@r9,	r1	;
 478:	04 00       	mova	@r0,	r4	;
 47a:	01 03       	mova	@r3,	r1	;
 47c:	01 09       	mova	@r9,	r1	;
 47e:	0c 00       	mova	@r0,	r12	;
 480:	01 03       	mova	@r3,	r1	;
 482:	02 09       	mova	@r9,	r2	;
 484:	0e 00       	mova	@r0,	r14	;
 486:	01 03       	mova	@r3,	r1	;
 488:	03 09       	mova	@r9,	r3	;
 48a:	6e 00 01 03 	mova	r0,	&918273	; 0xe0301
 48e:	01 09       	mova	@r9,	r1	;
 490:	08 00       	mova	@r0,	r8	;
 492:	01 03       	mova	@r3,	r1	;
 494:	02 09       	mova	@r9,	r2	;
 496:	04 00       	mova	@r0,	r4	;
 498:	01 03       	mova	@r3,	r1	;
 49a:	01 09       	mova	@r9,	r1	;
 49c:	12 00       	mova	@r0+,	r2	;
 49e:	01 03       	mova	@r3,	r1	;
 4a0:	01 09       	mova	@r9,	r1	;
 4a2:	08 00       	mova	@r0,	r8	;
 4a4:	01 03       	mova	@r3,	r1	;
 4a6:	02 09       	mova	@r9,	r2	;
 4a8:	04 00       	mova	@r0,	r4	;
 4aa:	01 03       	mova	@r3,	r1	;
 4ac:	01 09       	mova	@r9,	r1	;
 4ae:	12 00       	mova	@r0+,	r2	;
 4b0:	01 03       	mova	@r3,	r1	;
 4b2:	01 09       	mova	@r9,	r1	;
 4b4:	08 00       	mova	@r0,	r8	;
 4b6:	01 03       	mova	@r3,	r1	;
 4b8:	02 09       	mova	@r9,	r2	;
 4ba:	04 00       	mova	@r0,	r4	;
 4bc:	01 03       	mova	@r3,	r1	;
 4be:	01 09       	mova	@r9,	r1	;
 4c0:	12 00       	mova	@r0+,	r2	;
 4c2:	01 03       	mova	@r3,	r1	;
 4c4:	01 09       	mova	@r9,	r1	;
 4c6:	08 00       	mova	@r0,	r8	;
 4c8:	01 03       	mova	@r3,	r1	;
 4ca:	02 09       	mova	@r9,	r2	;
 4cc:	04 00       	mova	@r0,	r4	;
 4ce:	01 03       	mova	@r3,	r1	;
 4d0:	01 09       	mova	@r9,	r1	;
 4d2:	12 00       	mova	@r0+,	r2	;
 4d4:	01 03       	mova	@r3,	r1	;
 4d6:	01 09       	mova	@r9,	r1	;
 4d8:	08 00       	mova	@r0,	r8	;
 4da:	01 03       	mova	@r3,	r1	;
 4dc:	02 09       	mova	@r9,	r2	;
 4de:	04 00       	mova	@r0,	r4	;
 4e0:	01 03       	mova	@r3,	r1	;
 4e2:	01 09       	mova	@r9,	r1	;
 4e4:	12 00       	mova	@r0+,	r2	;
 4e6:	01 03       	mova	@r3,	r1	;
 4e8:	01 09       	mova	@r9,	r1	;
 4ea:	08 00       	mova	@r0,	r8	;
 4ec:	01 03       	mova	@r3,	r1	;
 4ee:	02 09       	mova	@r9,	r2	;
 4f0:	04 00       	mova	@r0,	r4	;
 4f2:	01 03       	mova	@r3,	r1	;
 4f4:	01 09       	mova	@r9,	r1	;
 4f6:	12 00       	mova	@r0+,	r2	;
 4f8:	01 03       	mova	@r3,	r1	;
 4fa:	01 09       	mova	@r9,	r1	;
 4fc:	12 00       	mova	@r0+,	r2	;
 4fe:	01 03       	mova	@r3,	r1	;
 500:	02 09       	mova	@r9,	r2	;
 502:	04 00       	mova	@r0,	r4	;
 504:	01 03       	mova	@r3,	r1	;
 506:	01 09       	mova	@r9,	r1	;
 508:	0e 00       	mova	@r0,	r14	;
 50a:	01 03       	mova	@r3,	r1	;
 50c:	01 09       	mova	@r9,	r1	;
 50e:	12 00       	mova	@r0+,	r2	;
 510:	01 03       	mova	@r3,	r1	;
 512:	01 09       	mova	@r9,	r1	;
 514:	0c 00       	mova	@r0,	r12	;
 516:	01 03       	mova	@r3,	r1	;
 518:	02 09       	mova	@r9,	r2	;
 51a:	04 00       	mova	@r0,	r4	;
 51c:	01 03       	mova	@r3,	r1	;
 51e:	01 09       	mova	@r9,	r1	;
 520:	0e 00       	mova	@r0,	r14	;
 522:	01 03       	mova	@r3,	r1	;
 524:	01 09       	mova	@r9,	r1	;
 526:	12 00       	mova	@r0+,	r2	;
 528:	01 03       	mova	@r3,	r1	;
 52a:	01 09       	mova	@r9,	r1	;
 52c:	0c 00       	mova	@r0,	r12	;
 52e:	01 03       	mova	@r3,	r1	;
 530:	02 09       	mova	@r9,	r2	;
 532:	04 00       	mova	@r0,	r4	;
 534:	01 03       	mova	@r3,	r1	;
 536:	01 09       	mova	@r9,	r1	;
 538:	0e 00       	mova	@r0,	r14	;
 53a:	01 03       	mova	@r3,	r1	;
 53c:	01 09       	mova	@r9,	r1	;
 53e:	0a 00       	mova	@r0,	r10	;
 540:	01 03       	mova	@r3,	r1	;
 542:	02 09       	mova	@r9,	r2	;
 544:	02 00       	mova	@r0,	r2	;
 546:	01 03       	mova	@r3,	r1	;
 548:	50 09       	rram	#3,	r0	;
 54a:	04 00       	mova	@r0,	r4	;
 54c:	01 03       	mova	@r3,	r1	;
 54e:	32 09 0a 00 	mova	10(r9),	r2	;0x0000a
 552:	01 09       	mova	@r9,	r1	;
 554:	08 00       	mova	@r0,	r8	;
 556:	00 01       	bra	@r1		;
 558:	01 a0       	dadd	r0,	r1	;

00000559 <L0>:
 559:	a0 02 00 00 	adda	#131072,r0	;0x20000
 55d:	02 00       	mova	@r0,	r2	;
 55f:	f8 00       	suba	r0,	r8	;
	...

00000563 <L0>:
 563:	01 01       	mova	@r1,	r1	;
 565:	fb 0e       	suba	r14,	r11	;
 567:	0d 00       	mova	@r0,	r13	;
 569:	01 01       	mova	@r1,	r1	;
 56b:	01 01       	mova	@r1,	r1	;
 56d:	00 00       	beq			
 56f:	00 01       	bra	@r1		;
 571:	00 00       	beq			
 573:	01 73       	sbc	r1		;
 575:	6d 61       	addc.b	@r1,	r13	;
 577:	72 74       	subc.b	@r4+,	r2	;
 579:	00 2f       	jc	$-510    	;abs 0x37b
 57b:	68 6f       	addc.b	@r15,	r8	;
 57d:	6d 65       	addc.b	@r5,	r13	;
 57f:	2f 69       	addc	@r9,	r15	;
 581:	73 65       	.word	0x6573;	????
 583:	2f 44       	mov	@r4,	r15	;
 585:	65 73       	subc.b	#2,	r5	;r3 As==10
 587:	6b 74       	subc.b	@r4,	r11	;
 589:	6f 70       	subc.b	@r0,	r15	;
 58b:	2f 74       	subc	@r4,	r15	;
 58d:	6d 70       	subc.b	@r0,	r13	;
 58f:	2f 6d       	addc	@r13,	r15	;
 591:	73 70       	.word	0x7073;	????
 593:	34 33       	jn	$-406    	;abs 0x3fd
 595:	30 2d       	jc	$+610    	;abs 0x7f7
 597:	67 63       	addc.b	#2,	r7	;r3 As==10
 599:	63 2d       	jc	$+712    	;abs 0x861
 59b:	37 2e       	jc	$-912    	;abs 0x20b
 59d:	33 2e       	jc	$-920    	;abs 0x205
 59f:	31 2e       	jc	$-924    	;abs 0x203
 5a1:	32 34       	jge	$+102    	;abs 0x607
 5a3:	5f 6c 69 6e 	addc.b	28265(r12),r15	;0x06e69
 5a7:	75 78       	subc.b	@r8+,	r5	;
 5a9:	36 34       	jge	$+110    	;abs 0x617
 5ab:	2f 6d       	addc	@r13,	r15	;
 5ad:	73 70       	.word	0x7073;	????
 5af:	34 33       	jn	$-406    	;abs 0x419
 5b1:	30 2d       	jc	$+610    	;abs 0x813
 5b3:	65 6c       	addc.b	@r12,	r5	;
 5b5:	66 2f       	jc	$-306    	;abs 0x483
 5b7:	69 6e       	addc.b	@r14,	r9	;
 5b9:	63 6c       	.word	0x6c63;	????
 5bb:	75 64       	addc.b	@r4+,	r5	;
 5bd:	65 2f       	jc	$-308    	;abs 0x489
 5bf:	73 79       	.word	0x7973;	????
 5c1:	73 00 2f 68 	mova	r0,	26671(r3); 0x0682f
 5c5:	6f 6d       	addc.b	@r13,	r15	;
 5c7:	65 2f       	jc	$-308    	;abs 0x493
 5c9:	69 73       	subc.b	#2,	r9	;r3 As==10
 5cb:	65 2f       	jc	$-308    	;abs 0x497
 5cd:	44 65       	addc.b	r5,	r4	;
 5cf:	73 6b       	.word	0x6b73;	????
 5d1:	74 6f       	addc.b	@r15+,	r4	;
 5d3:	70 2f       	jc	$-286    	;abs 0x4b5
 5d5:	74 6d       	addc.b	@r13+,	r4	;
 5d7:	70 2f       	jc	$-286    	;abs 0x4b9
 5d9:	6d 73       	subc.b	#2,	r13	;r3 As==10
 5db:	70 34       	jge	$+226    	;abs 0x6bd
 5dd:	33 30       	jn	$+104    	;abs 0x645
 5df:	2d 67       	addc	@r7,	r13	;
 5e1:	63 63       	.word	0x6363;	????
 5e3:	2d 37       	jge	$-420    	;abs 0x43f
 5e5:	2e 33       	jn	$-418    	;abs 0x443
 5e7:	2e 31       	jn	$+606    	;abs 0x845
 5e9:	2e 32       	jn	$-930    	;abs 0x247
 5eb:	34 5f       	add	@r15+,	r4	;
 5ed:	6c 69       	addc.b	@r9,	r12	;
 5ef:	6e 75       	subc.b	@r5,	r14	;
 5f1:	78 36       	jge	$-782    	;abs 0x2e3
 5f3:	34 2f       	jc	$-406    	;abs 0x45d
 5f5:	6c 69       	addc.b	@r9,	r12	;
 5f7:	62 2f       	jc	$-314    	;abs 0x4bd
 5f9:	67 63       	addc.b	#2,	r7	;r3 As==10
 5fb:	63 2f       	jc	$-312    	;abs 0x4c3
 5fd:	6d 73       	subc.b	#2,	r13	;r3 As==10
 5ff:	70 34       	jge	$+226    	;abs 0x6e1
 601:	33 30       	jn	$+104    	;abs 0x669
 603:	2d 65       	addc	@r5,	r13	;
 605:	6c 66       	addc.b	@r6,	r12	;
 607:	2f 37       	jge	$-416    	;abs 0x467
 609:	2e 33       	jn	$-418    	;abs 0x467
 60b:	2e 31       	jn	$+606    	;abs 0x869
 60d:	2f 69       	addc	@r9,	r15	;
 60f:	6e 63       	addc.b	#2,	r14	;r3 As==10
 611:	6c 75       	subc.b	@r5,	r12	;
 613:	64 65       	addc.b	@r5,	r4	;
 615:	00 00       	beq			
 617:	73 6d       	.word	0x6d73;	????
 619:	61 72       	subc.b	#4,	r1	;r2 As==10
 61b:	74 2e       	jc	$-790    	;abs 0x305
 61d:	63 00 01 00 	mova	r0,	&196609	; 0x30001
 621:	00 6c       	addc	r12,	r0	;
 623:	6f 63       	addc.b	#2,	r15	;r3 As==10
 625:	6b 2e       	jc	$-808    	;abs 0x2fd
 627:	68 00 02 00 	mova	r0,	&524290	; 0x80002
 62b:	00 5f       	add	r15,	r0	;
 62d:	74 79       	subc.b	@r9+,	r4	;
 62f:	70 65       	addc.b	@r5+,	r0	;
 631:	73 2e       	jc	$-792    	;abs 0x319
 633:	68 00 02 00 	mova	r0,	&524290	; 0x80002
 637:	00 73       	sbc	r0		;
 639:	74 64       	addc.b	@r4+,	r4	;
 63b:	64 65       	addc.b	@r5,	r4	;
 63d:	66 2e       	jc	$-818    	;abs 0x30b
 63f:	68 00 03 00 	mova	r0,	&524291	; 0x80003
 643:	00 72       	subc	r2,	r0	;
 645:	65 65       	addc.b	@r5,	r5	;
 647:	6e 74       	subc.b	@r4,	r14	;
 649:	2e 68       	addc	@r8,	r14	;
 64b:	00 02       	bra	@r2		;
 64d:	00 00       	beq			
 64f:	73 6d       	.word	0x6d73;	????
 651:	61 72       	subc.b	#4,	r1	;r2 As==10
 653:	74 2e       	jc	$-790    	;abs 0x33d
 655:	68 00 01 00 	mova	r0,	&524289	; 0x80001
 659:	00 00       	beq			
 65b:	00 05       	bra	@r5		;
 65d:	02 e0       	xor	r0,	r2	;
 65f:	fa 00       	suba	r0,	r10	;
 661:	00 03       	bra	@r3		;
 663:	0d 01       	mova	@r1,	r13	;
 665:	03 01       	mova	@r1,	r3	;
 667:	09 08       	mova	@r8,	r9	;
 669:	00 01       	bra	@r1		;
 66b:	03 02       	mova	@r2,	r3	;
 66d:	09 06       	mova	@r6,	r9	;
 66f:	00 01       	bra	@r1		;
 671:	03 01       	mova	@r1,	r3	;
 673:	09 06       	mova	@r6,	r9	;
 675:	00 01       	bra	@r1		;
 677:	03 02       	mova	@r2,	r3	;
 679:	09 08       	mova	@r8,	r9	;
 67b:	00 01       	bra	@r1		;
 67d:	03 01       	mova	@r1,	r3	;
 67f:	09 16       	popm.a	#1,	r9	;20-bit words
 681:	00 01       	bra	@r1		;
 683:	03 01       	mova	@r1,	r3	;
 685:	09 04       	mova	@r4,	r9	;
 687:	00 01       	bra	@r1		;
 689:	03 05       	mova	@r5,	r3	;
 68b:	09 04       	mova	@r4,	r9	;
 68d:	00 01       	bra	@r1		;
 68f:	03 01       	mova	@r1,	r3	;
 691:	09 08       	mova	@r8,	r9	;
 693:	00 01       	bra	@r1		;
 695:	03 01       	mova	@r1,	r3	;
 697:	09 2c       	jc	$+20     	;abs 0x6ab
 699:	00 01       	bra	@r1		;
 69b:	03 01       	mova	@r1,	r3	;
 69d:	09 0e       	mova	@r14,	r9	;
 69f:	00 01       	bra	@r1		;
 6a1:	00 02       	bra	@r2		;
 6a3:	04 02       	mova	@r2,	r4	;
 6a5:	03 7d       	.word	0x7d03;	????
 6a7:	09 0c       	mova	@r12,	r9	;
 6a9:	00 01       	bra	@r1		;
 6ab:	00 02       	bra	@r2		;
 6ad:	04 01       	mova	@r1,	r4	;
 6af:	06 03       	mova	@r3,	r6	;
 6b1:	00 09       	bra	@r9		;
 6b3:	04 00       	mova	@r0,	r4	;
 6b5:	01 06       	mova	@r6,	r1	;
 6b7:	03 07       	mova	@r7,	r3	;
 6b9:	09 0a       	mova	@r10,	r9	;
 6bb:	00 01       	bra	@r1		;
 6bd:	03 01       	mova	@r1,	r3	;
 6bf:	09 08       	mova	@r8,	r9	;
 6c1:	00 01       	bra	@r1		;
 6c3:	03 01       	mova	@r1,	r3	;
 6c5:	09 30       	jn	$+20     	;abs 0x6d9
 6c7:	00 01       	bra	@r1		;
 6c9:	03 01       	mova	@r1,	r3	;
 6cb:	09 0e       	mova	@r14,	r9	;
 6cd:	00 01       	bra	@r1		;
 6cf:	00 02       	bra	@r2		;
 6d1:	04 02       	mova	@r2,	r4	;
 6d3:	03 7d       	.word	0x7d03;	????
 6d5:	09 0c       	mova	@r12,	r9	;
 6d7:	00 01       	bra	@r1		;
 6d9:	00 02       	bra	@r2		;
 6db:	04 01       	mova	@r1,	r4	;
 6dd:	06 03       	mova	@r3,	r6	;
 6df:	00 09       	bra	@r9		;
 6e1:	04 00       	mova	@r0,	r4	;
 6e3:	01 06       	mova	@r6,	r1	;
 6e5:	03 07       	mova	@r7,	r3	;
 6e7:	09 0a       	mova	@r10,	r9	;
 6e9:	00 01       	bra	@r1		;
 6eb:	03 01       	mova	@r1,	r3	;
 6ed:	09 04       	mova	@r4,	r9	;
 6ef:	00 01       	bra	@r1		;
 6f1:	03 01       	mova	@r1,	r3	;
 6f3:	09 04       	mova	@r4,	r9	;
 6f5:	00 01       	bra	@r1		;
 6f7:	03 01       	mova	@r1,	r3	;
 6f9:	09 08       	mova	@r8,	r9	;
 6fb:	00 01       	bra	@r1		;
 6fd:	03 01       	mova	@r1,	r3	;
 6ff:	09 08       	mova	@r8,	r9	;
 701:	00 01       	bra	@r1		;
 703:	03 01       	mova	@r1,	r3	;
 705:	09 12       	push	r9		;
 707:	00 01       	bra	@r1		;
 709:	03 01       	mova	@r1,	r3	;
 70b:	09 2a       	jnc	$-1004   	;abs 0x31f
 70d:	00 01       	bra	@r1		;
 70f:	03 01       	mova	@r1,	r3	;
 711:	09 12       	push	r9		;
 713:	00 01       	bra	@r1		;
 715:	03 01       	mova	@r1,	r3	;
 717:	09 14       	pushm.a	#1,	r9	;20-bit words
 719:	00 01       	bra	@r1		;
 71b:	00 02       	bra	@r2		;
 71d:	04 02       	mova	@r2,	r4	;
 71f:	03 7b       	.word	0x7b03;	????
 721:	09 04       	mova	@r4,	r9	;
 723:	00 01       	bra	@r1		;
 725:	00 02       	bra	@r2		;
 727:	04 01       	mova	@r1,	r4	;
 729:	06 03       	mova	@r3,	r6	;
 72b:	00 09       	bra	@r9		;
 72d:	04 00       	mova	@r0,	r4	;
 72f:	01 06       	mova	@r6,	r1	;
 731:	03 09       	mova	@r9,	r3	;
 733:	09 0a       	mova	@r10,	r9	;
 735:	00 01       	bra	@r1		;
 737:	03 01       	mova	@r1,	r3	;
 739:	09 2c       	jc	$+20     	;abs 0x74d
 73b:	00 01       	bra	@r1		;
 73d:	03 02       	mova	@r2,	r3	;
 73f:	09 04       	mova	@r4,	r9	;
 741:	00 01       	bra	@r1		;
 743:	00 02       	bra	@r2		;
 745:	04 01       	mova	@r1,	r4	;
 747:	06 03       	mova	@r3,	r6	;
 749:	00 09       	bra	@r9		;
 74b:	0c 00       	mova	@r0,	r12	;
 74d:	01 06       	mova	@r6,	r1	;
 74f:	03 72       	.word	0x7203;	????
 751:	09 0c       	mova	@r12,	r9	;
 753:	00 01       	bra	@r1		;
 755:	03 12       	push	#0		;r3 As==00
 757:	09 0e       	mova	@r14,	r9	;
 759:	00 01       	bra	@r1		;
 75b:	00 02       	bra	@r2		;
 75d:	04 03       	mova	@r3,	r4	;
 75f:	03 01       	mova	@r1,	r3	;
 761:	09 10       	rrc	r9		;
 763:	00 01       	bra	@r1		;
 765:	00 02       	bra	@r2		;
 767:	04 03       	mova	@r3,	r4	;
 769:	03 01       	mova	@r1,	r3	;
 76b:	09 22       	jnz	$-1004   	;abs 0x37f
 76d:	00 01       	bra	@r1		;
 76f:	00 02       	bra	@r2		;
 771:	04 03       	mova	@r3,	r4	;
 773:	03 7e       	.word	0x7e03;	????
 775:	09 04       	mova	@r4,	r9	;
 777:	00 01       	bra	@r1		;
 779:	00 02       	bra	@r2		;
 77b:	04 01       	mova	@r1,	r4	;
 77d:	06 03       	mova	@r3,	r6	;
 77f:	00 09       	bra	@r9		;
 781:	04 00       	mova	@r0,	r4	;
 783:	01 06       	mova	@r6,	r1	;
 785:	03 04       	mova	@r4,	r3	;
 787:	09 0a       	mova	@r10,	r9	;
 789:	00 01       	bra	@r1		;
 78b:	03 02       	mova	@r2,	r3	;
 78d:	09 26       	jz	$-1004   	;abs 0x3a1
 78f:	00 01       	bra	@r1		;
 791:	03 02       	mova	@r2,	r3	;
 793:	09 08       	mova	@r8,	r9	;
 795:	00 01       	bra	@r1		;
 797:	00 02       	bra	@r2		;
 799:	04 01       	mova	@r1,	r4	;
 79b:	06 03       	mova	@r3,	r6	;
 79d:	00 09       	bra	@r9		;
 79f:	0a 00       	mova	@r0,	r10	;
 7a1:	01 06       	mova	@r6,	r1	;
 7a3:	03 01       	mova	@r1,	r3	;
 7a5:	09 0c       	mova	@r12,	r9	;
 7a7:	00 01       	bra	@r1		;
 7a9:	03 02       	mova	@r2,	r3	;
 7ab:	09 08       	mova	@r8,	r9	;
 7ad:	00 01       	bra	@r1		;
 7af:	03 01       	mova	@r1,	r3	;
 7b1:	09 06       	mova	@r6,	r9	;
 7b3:	00 01       	bra	@r1		;
 7b5:	03 02       	mova	@r2,	r3	;
 7b7:	09 08       	mova	@r8,	r9	;
 7b9:	00 01       	bra	@r1		;
 7bb:	03 01       	mova	@r1,	r3	;
 7bd:	09 06       	mova	@r6,	r9	;
 7bf:	00 01       	bra	@r1		;
 7c1:	03 01       	mova	@r1,	r3	;
 7c3:	09 06       	mova	@r6,	r9	;
 7c5:	00 01       	bra	@r1		;
 7c7:	03 01       	mova	@r1,	r3	;
 7c9:	09 04       	mova	@r4,	r9	;
 7cb:	00 01       	bra	@r1		;
 7cd:	03 02       	mova	@r2,	r3	;
 7cf:	09 0e       	mova	@r14,	r9	;
 7d1:	00 01       	bra	@r1		;
 7d3:	03 03       	mova	@r3,	r3	;
 7d5:	09 0a       	mova	@r10,	r9	;
 7d7:	00 01       	bra	@r1		;
 7d9:	03 01       	mova	@r1,	r3	;
 7db:	09 0a       	mova	@r10,	r9	;
 7dd:	00 01       	bra	@r1		;
 7df:	00 02       	bra	@r2		;
 7e1:	04 01       	mova	@r1,	r4	;
 7e3:	06 03       	mova	@r3,	r6	;
 7e5:	00 09       	bra	@r9		;
 7e7:	02 00       	mova	@r0,	r2	;
 7e9:	01 06       	mova	@r6,	r1	;
 7eb:	03 02       	mova	@r2,	r3	;
 7ed:	09 0c       	mova	@r12,	r9	;
 7ef:	00 01       	bra	@r1		;
 7f1:	03 01       	mova	@r1,	r3	;
 7f3:	09 04       	mova	@r4,	r9	;
 7f5:	00 01       	bra	@r1		;
 7f7:	09 04       	mova	@r4,	r9	;
 7f9:	00 00       	beq			
 7fb:	01 01       	mova	@r1,	r1	;

Disassembly of section .debug_frame:

00000000 <.debug_frame>:
   0:	10 00       	bra	@r0+		;
   2:	00 00       	beq			
   4:	ff ff       	.word	0xffff;	????
   6:	ff ff       	.word	0xffff;	????
   8:	03 00       	mova	@r0,	r3	;
   a:	01 7e       	subc	r14,	r1	;
   c:	00 0c       	bra	@r12		;
   e:	01 02       	mova	@r2,	r1	;
  10:	80 01 00 00 	mova	#65536,	r0	;0x10000
  14:	14 00       	mova	@r0+,	r4	;
  16:	00 00       	beq			
  18:	00 00       	beq			
  1a:	00 00       	beq			
  1c:	8e e1 00 00 	xor	r1,	0(r14)	;
  20:	de 00       	cmpa	r0,	r14	;
  22:	00 00       	beq			
  24:	04 04       	mova	@r4,	r4	;
  26:	00 00       	beq			
  28:	00 0e       	bra	@r14		;
  2a:	ee 02       	adda	r2,	r14	;
  2c:	10 00       	bra	@r0+		;
  2e:	00 00       	beq			
  30:	ff ff       	.word	0xffff;	????
  32:	ff ff       	.word	0xffff;	????
  34:	03 00       	mova	@r0,	r3	;
  36:	01 7e       	subc	r14,	r1	;
  38:	00 0c       	bra	@r12		;
  3a:	01 02       	mova	@r2,	r1	;
  3c:	80 01 00 00 	mova	#65536,	r0	;0x10000
  40:	14 00       	mova	@r0+,	r4	;
  42:	00 00       	beq			
  44:	2c 00 00 00 	mova	&0,	r12	;
  48:	6c e2       	xor.b	#4,	r12	;r2 As==10
  4a:	00 00       	beq			
  4c:	28 00 00 00 	mova	&0,	r8	;
  50:	04 02       	mova	@r2,	r4	;
  52:	00 00       	beq			
  54:	00 0e       	bra	@r14		;
  56:	04 00       	mova	@r0,	r4	;
  58:	14 00       	mova	@r0+,	r4	;
  5a:	00 00       	beq			
  5c:	2c 00 00 00 	mova	&0,	r12	;
  60:	94 e2 00 00 	xor	&0x0000,26(r4)	;0x0000, 0x001a
  64:	1a 00 
  66:	00 00       	beq			
  68:	04 02       	mova	@r2,	r4	;
  6a:	00 00       	beq			
  6c:	00 0e       	bra	@r14		;
  6e:	04 00       	mova	@r0,	r4	;
  70:	14 00       	mova	@r0+,	r4	;
  72:	00 00       	beq			
  74:	2c 00 00 00 	mova	&0,	r12	;
  78:	ae e2 00 00 	xor	#4,	0(r14)	;r2 As==10
  7c:	1c 00       	mova	@r0+,	r12	;
  7e:	00 00       	beq			
  80:	04 02       	mova	@r2,	r4	;
  82:	00 00       	beq			
  84:	00 0e       	bra	@r14		;
  86:	04 00       	mova	@r0,	r4	;
  88:	14 00       	mova	@r0+,	r4	;
  8a:	00 00       	beq			
  8c:	2c 00 00 00 	mova	&0,	r12	;
  90:	ca e2 00 00 	xor.b	r2,	0(r10)	;
  94:	40 00       	rrcm.a	#1,	r0	;
  96:	00 00       	beq			
  98:	04 02       	mova	@r2,	r4	;
  9a:	00 00       	beq			
  9c:	00 0e       	bra	@r14		;
  9e:	06 00       	mova	@r0,	r6	;
  a0:	14 00       	mova	@r0+,	r4	;
  a2:	00 00       	beq			
  a4:	2c 00 00 00 	mova	&0,	r12	;
  a8:	0a e3       	xor	#0,	r10	;r3 As==00
  aa:	00 00       	beq			
  ac:	1c 00       	mova	@r0+,	r12	;
  ae:	00 00       	beq			
  b0:	04 02       	mova	@r2,	r4	;
  b2:	00 00       	beq			
  b4:	00 0e       	bra	@r14		;
  b6:	04 00       	mova	@r0,	r4	;
  b8:	14 00       	mova	@r0+,	r4	;
  ba:	00 00       	beq			
  bc:	2c 00 00 00 	mova	&0,	r12	;
  c0:	26 e3       	xor	#2,	r6	;r3 As==10
  c2:	00 00       	beq			
  c4:	4c 00       	rrcm.a	#1,	r12	;
  c6:	00 00       	beq			
  c8:	04 02       	mova	@r2,	r4	;
  ca:	00 00       	beq			
  cc:	00 0e       	bra	@r14		;
  ce:	06 00       	mova	@r0,	r6	;
  d0:	14 00       	mova	@r0+,	r4	;
  d2:	00 00       	beq			
  d4:	2c 00 00 00 	mova	&0,	r12	;
  d8:	72 e3       	xor.b	#-1,	r2	;r3 As==11
  da:	00 00       	beq			
  dc:	68 00 00 00 	mova	r0,	&524288	; 0x80000
  e0:	04 04       	mova	@r4,	r4	;
  e2:	00 00       	beq			
  e4:	00 0e       	bra	@r14		;
  e6:	08 00       	mova	@r0,	r8	;
  e8:	14 00       	mova	@r0+,	r4	;
  ea:	00 00       	beq			
  ec:	2c 00 00 00 	mova	&0,	r12	;
  f0:	da e3 00 00 	xor.b	#1,	0(r10)	;r3 As==01
  f4:	54 00       	rrcm	#1,	r4	;
  f6:	00 00       	beq			
  f8:	04 04       	mova	@r4,	r4	;
  fa:	00 00       	beq			
  fc:	00 0e       	bra	@r14		;
  fe:	08 00       	mova	@r0,	r8	;
 100:	14 00       	mova	@r0+,	r4	;
 102:	00 00       	beq			
 104:	2c 00 00 00 	mova	&0,	r12	;
 108:	2e e4       	xor	@r4,	r14	;
 10a:	00 00       	beq			
 10c:	b2 00 00 00 	suba	#0,	r2	;
 110:	04 04       	mova	@r4,	r4	;
 112:	00 00       	beq			
 114:	00 0e       	bra	@r14		;
 116:	1a 00       	mova	@r0+,	r10	;
 118:	14 00       	mova	@r0+,	r4	;
 11a:	00 00       	beq			
 11c:	2c 00 00 00 	mova	&0,	r12	;
 120:	e0 e4 00 00 	xor.b	@r4,	0x0000	; PC rel. 0x0122
 124:	f4 01       	suba	r1,	r4	;
 126:	00 00       	beq			
 128:	04 04       	mova	@r4,	r4	;
 12a:	00 00       	beq			
 12c:	00 0e       	bra	@r14		;
 12e:	08 00       	mova	@r0,	r8	;
 130:	10 00       	bra	@r0+		;
 132:	00 00       	beq			
 134:	ff ff       	.word	0xffff;	????
 136:	ff ff       	.word	0xffff;	????
 138:	03 00       	mova	@r0,	r3	;
 13a:	01 7e       	subc	r14,	r1	;
 13c:	00 0c       	bra	@r12		;
 13e:	01 02       	mova	@r2,	r1	;
 140:	80 01 00 00 	mova	#65536,	r0	;0x10000
 144:	14 00       	mova	@r0+,	r4	;
 146:	00 00       	beq			
 148:	30 01 00 00 	bra	0(r1)		;
 14c:	e0 fa 00 00 	and.b	@r10,	0x0000	; PC rel. 0x014e
 150:	76 02 00 00 	mova	r2,	0(r6)	;
 154:	04 04       	mova	@r4,	r4	;
 156:	00 00       	beq			
 158:	00 0e       	bra	@r14		;
 15a:	18 00       	mova	@r0+,	r8	;
 15c:	14 00       	mova	@r0+,	r4	;
 15e:	00 00       	beq			
 160:	30 01 00 00 	bra	0(r1)		;
 164:	56 fd 00 00 	and.b	0(r13),	r6	;
 168:	48 00       	rrcm.a	#1,	r8	;
 16a:	00 00       	beq			
 16c:	04 02       	mova	@r2,	r4	;
 16e:	00 00       	beq			
 170:	00 0e       	bra	@r14		;
 172:	04 00       	mova	@r0,	r4	;

Disassembly of section .debug_str:

00000000 <.debug_str>:
   0:	5f 64 73 6f 	addc.b	28531(r4),r15	;0x06f73
   4:	5f 68 61 6e 	addc.b	28257(r8),r15	;0x06e61
   8:	64 6c       	addc.b	@r12,	r4	;
   a:	65 00 5f 73 	mova	r0,	&357215	; 0x5735f
   e:	69 7a       	subc.b	@r10,	r9	;
  10:	65 00 5f 72 	mova	r0,	&356959	; 0x5725f
  14:	61 6e       	addc.b	@r14,	r1	;
  16:	64 34       	jge	$+202    	;abs 0xe0
  18:	38 00 5f 65 	mova	25951(r0),r8	;PC rel. 0x06579
  1c:	6d 65       	addc.b	@r5,	r13	;
  1e:	72 67       	addc.b	@r7+,	r2	;
  20:	65 6e       	addc.b	@r14,	r5	;
  22:	63 79       	.word	0x7963;	????
  24:	00 73       	sbc	r0		;
  26:	74 72       	subc.b	#8,	r4	;r2 As==11
  28:	69 6e       	addc.b	@r14,	r9	;
  2a:	67 00 5f 64 	mova	r0,	&484447	; 0x7645f
  2e:	61 74       	subc.b	@r4,	r1	;
  30:	61 00 5f 77 	mova	r0,	&96095	; 0x1775f
  34:	63 72       	.word	0x7263;	????
  36:	74 6f       	addc.b	@r15+,	r4	;
  38:	6d 62       	addc.b	#4,	r13	;r2 As==10
  3a:	5f 73       	subc.b	#1,	r15	;r3 As==01
  3c:	74 61       	addc.b	@r1+,	r4	;
  3e:	74 65       	addc.b	@r5+,	r4	;
  40:	00 5f       	add	r15,	r0	;
  42:	77 63       	addc.b	#-1,	r7	;r3 As==11
  44:	73 72       	.word	0x7273;	????
  46:	74 6f       	addc.b	@r15+,	r4	;
  48:	6d 62       	addc.b	#4,	r13	;r2 As==10
  4a:	73 5f       	.word	0x5f73;	????
  4c:	73 74       	.word	0x7473;	????
  4e:	61 74       	subc.b	@r4,	r1	;
  50:	65 00 6e 6f 	mova	r0,	&356206	; 0x56f6e
  54:	75 6e       	addc.b	@r14+,	r5	;
  56:	63 65       	.word	0x6563;	????
  58:	00 6c       	addc	r12,	r0	;
  5a:	6f 6e       	addc.b	@r14,	r15	;
  5c:	67 20       	jnz	$+208    	;abs 0x12c
  5e:	6c 6f       	addc.b	@r15,	r12	;
  60:	6e 67       	addc.b	@r7,	r14	;
  62:	20 75       	subc	@r5,	r0	;
  64:	6e 73       	subc.b	#2,	r14	;r3 As==10
  66:	69 67       	addc.b	@r7,	r9	;
  68:	6e 65       	addc.b	@r5,	r14	;
  6a:	64 20       	jnz	$+202    	;abs 0x134
  6c:	69 6e       	addc.b	@r14,	r9	;
  6e:	74 00 5f 6c 	mova	r0,	27743(r4); 0x06c5f
  72:	62 66       	addc.b	@r6,	r2	;
  74:	73 69       	.word	0x6973;	????
  76:	7a 65       	addc.b	@r5+,	r10	;
  78:	00 5f       	add	r15,	r0	;
  7a:	6d 62       	addc.b	#4,	r13	;r2 As==10
  7c:	72 74       	subc.b	@r4+,	r2	;
  7e:	6f 77       	subc.b	@r7,	r15	;
  80:	63 5f       	.word	0x5f63;	????
  82:	73 74       	.word	0x7473;	????
  84:	61 74       	subc.b	@r4,	r1	;
  86:	65 00 5f 77 	mova	r0,	&358239	; 0x5775f
  8a:	63 74       	.word	0x7463;	????
  8c:	6f 6d       	addc.b	@r13,	r15	;
  8e:	62 5f       	add.b	@r15,	r2	;
  90:	73 74       	.word	0x7473;	????
  92:	61 74       	subc.b	@r4,	r1	;
  94:	65 00 5f 5f 	mova	r0,	&352095	; 0x55f5f
  98:	74 6d       	addc.b	@r13+,	r4	;
  9a:	5f 73       	subc.b	#1,	r15	;r3 As==01
  9c:	65 63       	addc.b	#2,	r5	;r3 As==10
  9e:	00 6c       	addc	r12,	r0	;
  a0:	6f 6e       	addc.b	@r14,	r15	;
  a2:	67 20       	jnz	$+208    	;abs 0x172
  a4:	6c 6f       	addc.b	@r15,	r12	;
  a6:	6e 67       	addc.b	@r7,	r14	;
  a8:	20 69       	addc	@r9,	r0	;
  aa:	6e 74       	subc.b	@r4,	r14	;
  ac:	00 5f       	add	r15,	r0	;
  ae:	75 62       	addc.b	#8,	r5	;r2 As==11
  b0:	75 66       	addc.b	@r6+,	r5	;
  b2:	00 5f       	add	r15,	r0	;
  b4:	62 61       	addc.b	@r1,	r2	;
  b6:	73 65       	.word	0x6573;	????
  b8:	00 5f       	add	r15,	r0	;
  ba:	5f 74 6d 5f 	subc.b	24429(r4),r15	;0x05f6d
  be:	68 6f       	addc.b	@r15,	r8	;
  c0:	75 72       	subc.b	#8,	r5	;r2 As==11
  c2:	00 5f       	add	r15,	r0	;
  c4:	5f 73       	subc.b	#1,	r15	;r3 As==01
  c6:	66 00 5f 6f 	mova	r0,	&421727	; 0x66f5f
  ca:	6e 5f       	add.b	@r15,	r14	;
  cc:	65 78       	subc.b	@r8,	r5	;
  ce:	69 74       	subc.b	@r4,	r9	;
  d0:	5f 61 72 67 	addc.b	26482(r1),r15	;0x06772
  d4:	73 00 5f 63 	mova	r0,	25439(r3); 0x0635f
  d8:	6f 6f       	addc.b	@r15,	r15	;
  da:	6b 69       	addc.b	@r9,	r11	;
  dc:	65 00 5f 5f 	mova	r0,	&352095	; 0x55f5f
  e0:	73 67       	.word	0x6773;	????
  e2:	6c 75       	subc.b	@r5,	r12	;
  e4:	65 00 5f 6d 	mova	r0,	&355679	; 0x56d5f
  e8:	70 72       	subc.b	#8,	r0	;r2 As==11
  ea:	65 63       	addc.b	#2,	r5	;r3 As==10
  ec:	00 5f       	add	r15,	r0	;
  ee:	66 6c       	addc.b	@r12,	r6	;
  f0:	61 67       	addc.b	@r7,	r1	;
  f2:	73 00 5f 69 	mova	r0,	26975(r3); 0x0695f
  f6:	73 5f       	.word	0x5f73;	????
  f8:	63 78       	.word	0x7863;	????
  fa:	61 00 5f 62 	mova	r0,	&90719	; 0x1625f
  fe:	6c 6b       	addc.b	@r11,	r12	;
 100:	73 69       	.word	0x6973;	????
 102:	7a 65       	addc.b	@r5+,	r10	;
 104:	00 5f       	add	r15,	r0	;
 106:	63 76       	.word	0x7663;	????
 108:	74 62       	addc.b	#8,	r4	;r2 As==11
 10a:	75 66       	addc.b	@r6+,	r5	;
 10c:	00 5f       	add	r15,	r0	;
 10e:	6f 66       	addc.b	@r6,	r15	;
 110:	66 73       	subc.b	#2,	r6	;r3 As==10
 112:	65 74       	subc.b	@r4,	r5	;
 114:	00 5f       	add	r15,	r0	;
 116:	6d 62       	addc.b	#4,	r13	;r2 As==10
 118:	73 72       	.word	0x7273;	????
 11a:	74 6f       	addc.b	@r15+,	r4	;
 11c:	77 63       	addc.b	#-1,	r7	;r3 As==11
 11e:	73 5f       	.word	0x5f73;	????
 120:	73 74       	.word	0x7473;	????
 122:	61 74       	subc.b	@r4,	r1	;
 124:	65 00 5f 6d 	mova	r0,	&355679	; 0x56d5f
 128:	62 72       	subc.b	#4,	r2	;r2 As==10
 12a:	6c 65       	addc.b	@r5,	r12	;
 12c:	6e 5f       	add.b	@r15,	r14	;
 12e:	73 74       	.word	0x7473;	????
 130:	61 74       	subc.b	@r4,	r1	;
 132:	65 00 5f 66 	mova	r0,	&353887	; 0x5665f
 136:	6e 61       	addc.b	@r1,	r14	;
 138:	72 67       	addc.b	@r7+,	r2	;
 13a:	73 00 5f 66 	mova	r0,	26207(r3); 0x0665f
 13e:	6e 73       	subc.b	#2,	r14	;r3 As==10
 140:	00 5f       	add	r15,	r0	;
 142:	73 69       	.word	0x6973;	????
 144:	67 6e       	addc.b	@r14,	r7	;
 146:	00 5f       	add	r15,	r0	;
 148:	66 6c       	addc.b	@r12,	r6	;
 14a:	6f 63       	addc.b	#2,	r15	;r3 As==10
 14c:	6b 5f       	add.b	@r15,	r11	;
 14e:	74 00 5f 42 	mova	r0,	16991(r4); 0x0425f
 152:	69 67       	addc.b	@r7,	r9	;
 154:	69 6e       	addc.b	@r14,	r9	;
 156:	74 00 5f 67 	mova	r0,	26463(r4); 0x0675f
 15a:	61 6d       	addc.b	@r13,	r1	;
 15c:	6d 61       	addc.b	@r1,	r13	;
 15e:	5f 73       	subc.b	#1,	r15	;r3 As==01
 160:	69 67       	addc.b	@r7,	r9	;
 162:	6e 67       	addc.b	@r7,	r14	;
 164:	61 6d       	addc.b	@r13,	r1	;
 166:	00 5f       	add	r15,	r0	;
 168:	72 65       	addc.b	@r5+,	r2	;
 16a:	61 64       	addc.b	@r4,	r1	;
 16c:	00 5f       	add	r15,	r0	;
 16e:	72 65       	addc.b	@r5+,	r2	;
 170:	73 75       	.word	0x7573;	????
 172:	6c 74       	subc.b	@r4,	r12	;
 174:	5f 6b 00 5f 	addc.b	24320(r11),r15	;0x05f00
 178:	5f 74 6d 00 	subc.b	109(r4),r15	;0x0006d
 17c:	5f 6f 6e 5f 	addc.b	24430(r15),r15	;0x05f6e
 180:	65 78       	subc.b	@r8,	r5	;
 182:	69 74       	subc.b	@r4,	r9	;
 184:	5f 61 72 67 	addc.b	26482(r1),r15	;0x06772
 188:	73 5f       	.word	0x5f73;	????
 18a:	70 74       	subc.b	@r4+,	r0	;
 18c:	72 00 5f 5f 	mova	r0,	24415(r2); 0x05f5f
 190:	77 63       	addc.b	#-1,	r7	;r3 As==11
 192:	68 62       	addc.b	#4,	r8	;r2 As==10
 194:	00 5f       	add	r15,	r0	;
 196:	63 76       	.word	0x7663;	????
 198:	74 6c       	addc.b	@r12+,	r4	;
 19a:	65 6e       	addc.b	@r14,	r5	;
 19c:	00 5f       	add	r15,	r0	;
 19e:	5f 73       	subc.b	#1,	r15	;r3 As==01
 1a0:	46 49       	mov.b	r9,	r6	;
 1a2:	4c 45       	mov.b	r5,	r12	;
 1a4:	5f 66 61 6b 	addc.b	27489(r6),r15	;0x06b61
 1a8:	65 00 5f 6e 	mova	r0,	&355935	; 0x56e5f
 1ac:	69 6f       	addc.b	@r15,	r9	;
 1ae:	62 73       	subc.b	#2,	r2	;r3 As==10
 1b0:	00 73       	sbc	r0		;
 1b2:	68 6f       	addc.b	@r15,	r8	;
 1b4:	72 74       	subc.b	@r4+,	r2	;
 1b6:	20 75       	subc	@r5,	r0	;
 1b8:	6e 73       	subc.b	#2,	r14	;r3 As==10
 1ba:	69 67       	addc.b	@r7,	r9	;
 1bc:	6e 65       	addc.b	@r5,	r14	;
 1be:	64 20       	jnz	$+202    	;abs 0x288
 1c0:	69 6e       	addc.b	@r14,	r9	;
 1c2:	74 00 5f 61 	mova	r0,	24927(r4); 0x0615f
 1c6:	74 65       	addc.b	@r5+,	r4	;
 1c8:	78 69       	addc.b	@r9+,	r8	;
 1ca:	74 30       	jn	$+234    	;abs 0x2b4
 1cc:	00 5f       	add	r15,	r0	;
 1ce:	73 69       	.word	0x6973;	????
 1d0:	67 6e       	addc.b	@r14,	r7	;
 1d2:	61 6c       	addc.b	@r12,	r1	;
 1d4:	5f 62 75 66 	addc.b	&0x6675,r15	;0x6675
 1d8:	00 5f       	add	r15,	r0	;
 1da:	61 73       	subc.b	#2,	r1	;r3 As==10
 1dc:	63 74       	.word	0x7463;	????
 1de:	69 6d       	addc.b	@r13,	r9	;
 1e0:	65 5f       	add.b	@r15,	r5	;
 1e2:	62 75       	subc.b	@r5,	r2	;
 1e4:	66 00 5f 72 	mova	r0,	&422495	; 0x6725f
 1e8:	65 73       	subc.b	#2,	r5	;r3 As==10
 1ea:	75 6c       	addc.b	@r12+,	r5	;
 1ec:	74 00 5f 5f 	mova	r0,	24415(r4); 0x05f5f
 1f0:	77 63       	addc.b	#-1,	r7	;r3 As==11
 1f2:	68 00 6d 61 	mova	r0,	&549229	; 0x8616d
 1f6:	69 6e       	addc.b	@r14,	r9	;
 1f8:	2e 63       	addc	#2,	r14	;r3 As==10
 1fa:	00 77       	subc	r7,	r0	;
 1fc:	69 6e       	addc.b	@r14,	r9	;
 1fe:	74 5f       	add.b	@r15+,	r4	;
 200:	74 00 5f 6c 	mova	r0,	27743(r4); 0x06c5f
 204:	6f 63       	addc.b	#2,	r15	;r3 As==10
 206:	6b 00 5f 66 	mova	r0,	&747103	; 0xb665f
 20a:	6c 61       	addc.b	@r1,	r12	;
 20c:	67 73       	subc.b	#2,	r7	;r3 As==10
 20e:	32 00 63 61 	mova	24931(r0),r2	;PC rel. 0x06373
 212:	6c 6c       	addc.b	@r12,	r12	;
 214:	00 5f       	add	r15,	r0	;
 216:	77 72       	subc.b	#8,	r7	;r2 As==11
 218:	69 74       	subc.b	@r4,	r9	;
 21a:	65 00 5f 5f 	mova	r0,	&352095	; 0x55f5f
 21e:	74 6d       	addc.b	@r13+,	r4	;
 220:	5f 79 65 61 	subc.b	24933(r9),r15	;0x06165
 224:	72 00 2f 68 	mova	r0,	26671(r2); 0x0682f
 228:	6f 6d       	addc.b	@r13,	r15	;
 22a:	65 2f       	jc	$-308    	;abs 0xf6
 22c:	69 73       	subc.b	#2,	r9	;r3 As==10
 22e:	65 2f       	jc	$-308    	;abs 0xfa
 230:	54 43       	mov.b	#1,	r4	;r3 As==01
 232:	43 2f       	jc	$-376    	;abs 0xba
 234:	53 4d       	.word	0x4d53;	????
 236:	41 52       	add.b	r2,	r1	;
 238:	54 2f       	jc	$-342    	;abs 0xe2
 23a:	73 6f       	.word	0x6f73;	????
 23c:	66 74       	subc.b	@r4,	r6	;
 23e:	77 61       	addc.b	@r1+,	r7	;
 240:	72 65       	addc.b	@r5+,	r2	;
 242:	2f 73       	subc	#2,	r15	;r3 As==10
 244:	6d 61       	addc.b	@r1,	r13	;
 246:	72 74       	subc.b	@r4+,	r2	;
 248:	5f 76 31 00 	subc.b	49(r6),	r15	;0x00031
 24c:	5f 6d 69 73 	addc.b	29545(r13),r15	;0x07369
 250:	63 00 6c 6f 	mova	r0,	&225132	; 0x36f6c
 254:	6e 67       	addc.b	@r7,	r14	;
 256:	20 64       	addc	@r4,	r0	;
 258:	6f 75       	subc.b	@r5,	r15	;
 25a:	62 6c       	addc.b	@r12,	r2	;
 25c:	65 00 5f 5f 	mova	r0,	&352095	; 0x55f5f
 260:	73 66       	.word	0x6673;	????
 262:	5f 66 61 6b 	addc.b	27489(r6),r15	;0x06b61
 266:	65 5f       	add.b	@r15,	r5	;
 268:	73 74       	.word	0x7473;	????
 26a:	64 69       	addc.b	@r9,	r4	;
 26c:	6e 00 5f 5f 	mova	r0,	&941919	; 0xe5f5f
 270:	73 66       	.word	0x6673;	????
 272:	5f 66 61 6b 	addc.b	27489(r6),r15	;0x06b61
 276:	65 5f       	add.b	@r15,	r5	;
 278:	73 74       	.word	0x7473;	????
 27a:	64 6f       	addc.b	@r15,	r4	;
 27c:	75 74       	subc.b	@r4+,	r5	;
 27e:	00 5f       	add	r15,	r0	;
 280:	5f 74 6d 5f 	subc.b	24429(r4),r15	;0x05f6d
 284:	6d 6f       	addc.b	@r15,	r13	;
 286:	6e 00 5f 61 	mova	r0,	&942431	; 0xe615f
 28a:	74 65       	addc.b	@r5+,	r4	;
 28c:	78 69       	addc.b	@r9+,	r8	;
 28e:	74 00 73 75 	mova	r0,	30067(r4); 0x07573
 292:	62 6f       	addc.b	@r15,	r2	;
 294:	70 74       	subc.b	@r4+,	r0	;
 296:	61 72       	subc.b	#4,	r1	;r2 As==10
 298:	67 00 5f 5f 	mova	r0,	&483167	; 0x75f5f
 29c:	73 64       	.word	0x6473;	????
 29e:	69 64       	addc.b	@r4,	r9	;
 2a0:	69 6e       	addc.b	@r14,	r9	;
 2a2:	69 74       	subc.b	@r4,	r9	;
 2a4:	00 5f       	add	r15,	r0	;
 2a6:	6f 66       	addc.b	@r6,	r15	;
 2a8:	66 5f       	add.b	@r15,	r6	;
 2aa:	74 00 5f 66 	mova	r0,	26207(r4); 0x0665f
 2ae:	72 65       	addc.b	@r5+,	r2	;
 2b0:	65 6c       	addc.b	@r12,	r5	;
 2b2:	69 73       	subc.b	#2,	r9	;r3 As==10
 2b4:	74 00 5f 4c 	mova	r0,	19551(r4); 0x04c5f
 2b8:	4f 43       	clr.b	r15		;
 2ba:	4b 5f       	add.b	r15,	r11	;
 2bc:	52 45 43 55 	mov.b	21827(r5),r2	;0x05543
 2c0:	52 53       	inc.b	r2		;
 2c2:	49 56       	add.b	r6,	r9	;
 2c4:	45 5f       	add.b	r15,	r5	;
 2c6:	54 00       	rrcm	#1,	r4	;
 2c8:	75 6e       	addc.b	@r14+,	r5	;
 2ca:	73 69       	.word	0x6973;	????
 2cc:	67 6e       	addc.b	@r14,	r7	;
 2ce:	65 64       	addc.b	@r4,	r5	;
 2d0:	20 63       	addc	#2,	r0	;r3 As==10
 2d2:	68 61       	addc.b	@r1,	r8	;
 2d4:	72 00 5f 69 	mova	r0,	26975(r2); 0x0695f
 2d8:	6f 62       	addc.b	#4,	r15	;r2 As==10
 2da:	73 00 73 68 	mova	r0,	26739(r3); 0x06873
 2de:	6f 72       	subc.b	#4,	r15	;r2 As==10
 2e0:	74 20       	jnz	$+234    	;abs 0x3ca
 2e2:	69 6e       	addc.b	@r14,	r9	;
 2e4:	74 00 5f 5f 	mova	r0,	24415(r4); 0x05f5f
 2e8:	74 6d       	addc.b	@r13+,	r4	;
 2ea:	5f 79 64 61 	subc.b	24932(r9),r15	;0x06164
 2ee:	79 00 5f 5f 	mova	r0,	24415(r9); 0x05f5f
 2f2:	73 62       	.word	0x6273;	????
 2f4:	75 66       	addc.b	@r6+,	r5	;
 2f6:	00 5f       	add	r15,	r0	;
 2f8:	5f 46 49 4c 	mov.b	19529(r6),r15	;0x04c49
 2fc:	45 00       	rrcm.a	#1,	r5	;
 2fe:	5f 6d 62 73 	addc.b	29538(r13),r15	;0x07362
 302:	74 61       	addc.b	@r1+,	r4	;
 304:	74 65       	addc.b	@r5+,	r4	;
 306:	5f 74 00 5f 	subc.b	24320(r4),r15	;0x05f00
 30a:	5f 73       	subc.b	#1,	r15	;r3 As==01
 30c:	46 49       	mov.b	r9,	r6	;
 30e:	4c 45       	mov.b	r5,	r12	;
 310:	00 5f       	add	r15,	r0	;
 312:	6d 62       	addc.b	#4,	r13	;r2 As==10
 314:	73 74       	.word	0x7473;	????
 316:	61 74       	subc.b	@r4,	r1	;
 318:	65 00 5f 72 	mova	r0,	&356959	; 0x5725f
 31c:	61 6e       	addc.b	@r14,	r1	;
 31e:	64 5f       	add.b	@r15,	r4	;
 320:	6e 65       	addc.b	@r5,	r14	;
 322:	78 74       	subc.b	@r4+,	r8	;
 324:	00 5f       	add	r15,	r0	;
 326:	6d 62       	addc.b	#4,	r13	;r2 As==10
 328:	6c 65       	addc.b	@r5,	r12	;
 32a:	6e 5f       	add.b	@r15,	r14	;
 32c:	73 74       	.word	0x7473;	????
 32e:	61 74       	subc.b	@r4,	r1	;
 330:	65 00 5f 69 	mova	r0,	&354655	; 0x5695f
 334:	6e 63       	addc.b	#2,	r14	;r3 As==10
 336:	00 5f       	add	r15,	r0	;
 338:	69 6e       	addc.b	@r14,	r9	;
 33a:	64 00 5f 63 	mova	r0,	&287583	; 0x4635f
 33e:	75 72       	subc.b	#8,	r5	;r2 As==11
 340:	72 65       	addc.b	@r5+,	r2	;
 342:	6e 74       	subc.b	@r4,	r14	;
 344:	5f 6c 6f 63 	addc.b	25455(r12),r15	;0x0636f
 348:	61 6c       	addc.b	@r12,	r1	;
 34a:	65 00 5f 5f 	mova	r0,	&352095	; 0x55f5f
 34e:	63 6c       	.word	0x6c63;	????
 350:	65 61       	addc.b	@r1,	r5	;
 352:	6e 75       	subc.b	@r5,	r14	;
 354:	70 00 5f 6d 	mova	r0,	27999(r0); PC rel. 0x070b5
 358:	61 78       	subc.b	@r8,	r1	;
 35a:	77 64       	addc.b	@r4+,	r7	;
 35c:	73 00 5f 73 	mova	r0,	29535(r3); 0x0735f
 360:	65 65       	addc.b	@r5,	r5	;
 362:	64 00 5f 5f 	mova	r0,	&286559	; 0x45f5f
 366:	63 6f       	.word	0x6f63;	????
 368:	75 6e       	addc.b	@r14+,	r5	;
 36a:	74 00 5f 5f 	mova	r0,	24415(r4); 0x05f5f
 36e:	76 61       	addc.b	@r1+,	r6	;
 370:	6c 75       	subc.b	@r5,	r12	;
 372:	65 00 5f 73 	mova	r0,	&357215	; 0x5735f
 376:	65 65       	addc.b	@r5,	r5	;
 378:	6b 00 5f 6c 	mova	r0,	&748639	; 0xb6c5f
 37c:	36 34       	jge	$+110    	;abs 0x3ea
 37e:	61 5f       	add.b	@r15,	r1	;
 380:	62 75       	subc.b	@r5,	r2	;
 382:	66 00 5f 66 	mova	r0,	&419423	; 0x6665f
 386:	70 6f       	addc.b	@r15+,	r0	;
 388:	73 5f       	.word	0x5f73;	????
 38a:	74 00 6c 65 	mova	r0,	25964(r4); 0x0656c
 38e:	6e 67       	addc.b	@r7,	r14	;
 390:	74 68       	addc.b	@r8+,	r4	;
 392:	00 5f       	add	r15,	r0	;
 394:	65 72       	subc.b	#4,	r5	;r2 As==10
 396:	72 6e       	addc.b	@r14+,	r2	;
 398:	6f 00 5f 5f 	mova	r0,	&1007455; 0xf5f5f
 39c:	74 6d       	addc.b	@r13+,	r4	;
 39e:	5f 6d 69 6e 	addc.b	28265(r13),r15	;0x06e69
 3a2:	00 73       	sbc	r0		;
 3a4:	6d 61       	addc.b	@r1,	r13	;
 3a6:	72 74       	subc.b	@r4+,	r2	;
 3a8:	5f 69 6e 70 	addc.b	28782(r9),r15	;0x0706e
 3ac:	75 74       	subc.b	@r4+,	r5	;
 3ae:	00 5f       	add	r15,	r0	;
 3b0:	6d 75       	subc.b	@r5,	r13	;
 3b2:	6c 74       	subc.b	@r4,	r12	;
 3b4:	00 5f       	add	r15,	r0	;
 3b6:	73 74       	.word	0x7473;	????
 3b8:	72 74       	subc.b	@r4+,	r2	;
 3ba:	6f 6b       	addc.b	@r11,	r15	;
 3bc:	5f 6c 61 73 	addc.b	29537(r12),r15	;0x07361
 3c0:	74 00 5f 66 	mova	r0,	26207(r4); 0x0665f
 3c4:	6e 74       	subc.b	@r4,	r14	;
 3c6:	79 70 65 73 	subc.b	#29541,	r9	;#0x7365
 3ca:	00 5f       	add	r15,	r0	;
 3cc:	6d 69       	addc.b	@r9,	r13	;
 3ce:	73 63       	.word	0x6373;	????
 3d0:	5f 72 65 65 	subc.b	&0x6565,r15	;0x6565
 3d4:	6e 74       	subc.b	@r4,	r14	;
 3d6:	00 5f       	add	r15,	r0	;
 3d8:	61 64       	addc.b	@r4,	r1	;
 3da:	64 00 5f 5f 	mova	r0,	&286559	; 0x45f5f
 3de:	55 4c 6f 6e 	mov.b	28271(r12),r5	;0x06e6f
 3e2:	67 00 5f 67 	mova	r0,	&485215	; 0x7675f
 3e6:	65 74       	subc.b	@r4,	r5	;
 3e8:	64 61       	addc.b	@r1,	r4	;
 3ea:	74 65       	addc.b	@r5+,	r4	;
 3ec:	5f 65 72 72 	addc.b	29298(r5),r15	;0x07272
 3f0:	00 5f       	add	r15,	r0	;
 3f2:	67 6c       	addc.b	@r12,	r7	;
 3f4:	6f 62       	addc.b	#4,	r15	;r2 As==10
 3f6:	61 6c       	addc.b	@r12,	r1	;
 3f8:	5f 69 6d 70 	addc.b	28781(r9),r15	;0x0706d
 3fc:	75 72       	subc.b	#8,	r5	;r2 As==11
 3fe:	65 5f       	add.b	@r15,	r5	;
 400:	70 74       	subc.b	@r4+,	r0	;
 402:	72 00 5f 63 	mova	r0,	25439(r2); 0x0635f
 406:	75 72       	subc.b	#8,	r5	;r2 As==11
 408:	72 65       	addc.b	@r5+,	r2	;
 40a:	6e 74       	subc.b	@r4,	r14	;
 40c:	5f 63       	addc.b	#1,	r15	;r3 As==01
 40e:	61 74       	subc.b	@r4,	r1	;
 410:	65 67       	addc.b	@r7,	r5	;
 412:	6f 72       	subc.b	#4,	r15	;r2 As==10
 414:	79 00 5f 66 	mova	r0,	26207(r9); 0x0665f
 418:	69 6c       	addc.b	@r12,	r9	;
 41a:	65 00 5f 77 	mova	r0,	&358239	; 0x5775f
 41e:	64 73       	subc.b	#2,	r4	;r3 As==10
 420:	00 5f       	add	r15,	r0	;
 422:	5f 74 6d 5f 	subc.b	24429(r4),r15	;0x05f6d
 426:	77 64       	addc.b	@r4+,	r7	;
 428:	61 79       	subc.b	@r9,	r1	;
 42a:	00 5f       	add	r15,	r0	;
 42c:	67 6c       	addc.b	@r12,	r7	;
 42e:	75 65       	addc.b	@r5+,	r5	;
 430:	00 47       	br	r7		;
 432:	4e 55       	add.b	r5,	r14	;
 434:	20 43       	br	#2		;r3 As==10
 436:	31 31       	jn	$+612    	;abs 0x69a
 438:	20 37       	jge	$-446    	;abs 0x27a
 43a:	2e 33       	jn	$-418    	;abs 0x298
 43c:	2e 31       	jn	$+606    	;abs 0x69a
 43e:	20 2d       	jc	$+578    	;abs 0x680
 440:	6d 63       	addc.b	#2,	r13	;r3 As==10
 442:	70 75       	subc.b	@r5+,	r0	;
 444:	3d 6d       	addc	@r13+,	r13	;
 446:	73 70       	.word	0x7073;	????
 448:	34 33       	jn	$-406    	;abs 0x2b2
 44a:	30 20       	jnz	$+98     	;abs 0x4ac
 44c:	2d 6d       	addc	@r13,	r13	;
 44e:	68 77       	subc.b	@r7,	r8	;
 450:	6d 75       	subc.b	@r5,	r13	;
 452:	6c 74       	subc.b	@r4,	r12	;
 454:	3d 31       	jn	$+636    	;abs 0x6d0
 456:	36 62       	addc	#8,	r6	;r2 As==11
 458:	69 74       	subc.b	@r4,	r9	;
 45a:	20 2d       	jc	$+578    	;abs 0x69c
 45c:	6d 64       	addc.b	@r4,	r13	;
 45e:	65 76       	subc.b	@r6,	r5	;
 460:	69 63       	addc.b	#2,	r9	;r3 As==10
 462:	65 73       	subc.b	#2,	r5	;r3 As==10
 464:	2d 63       	addc	#2,	r13	;r3 As==10
 466:	73 76       	.word	0x7673;	????
 468:	2d 6c       	addc	@r12,	r13	;
 46a:	6f 63       	addc.b	#2,	r15	;r3 As==10
 46c:	3d 2f       	jc	$-388    	;abs 0x2e8
 46e:	63 61       	.word	0x6163;	????
 470:	64 2f       	jc	$-310    	;abs 0x33a
 472:	74 69       	addc.b	@r9+,	r4	;
 474:	2f 67       	addc	@r7,	r15	;
 476:	63 63       	.word	0x6363;	????
 478:	2f 69       	addc	@r9,	r15	;
 47a:	6e 63       	addc.b	#2,	r14	;r3 As==10
 47c:	6c 75       	subc.b	@r5,	r12	;
 47e:	64 65       	addc.b	@r5,	r4	;
 480:	2f 64       	addc	@r4,	r15	;
 482:	65 76       	subc.b	@r6,	r5	;
 484:	69 63       	addc.b	#2,	r9	;r3 As==10
 486:	65 73       	subc.b	#2,	r5	;r3 As==10
 488:	2e 63       	addc	#2,	r14	;r3 As==10
 48a:	73 76       	.word	0x7673;	????
 48c:	20 2d       	jc	$+578    	;abs 0x6ce
 48e:	67 20       	jnz	$+208    	;abs 0x55e
 490:	2d 4f       	mov	@r15,	r13	;
 492:	30 00 5f 73 	bra	29535(r0)	;PC rel. 0x077f3
 496:	69 67       	addc.b	@r7,	r9	;
 498:	5f 66 75 6e 	addc.b	28277(r6),r15	;0x06e75
 49c:	63 00 5f 6e 	mova	r0,	&224863	; 0x36e5f
 4a0:	62 75       	subc.b	@r5,	r2	;
 4a2:	66 00 5f 5f 	mova	r0,	&417631	; 0x65f5f
 4a6:	74 6d       	addc.b	@r13+,	r4	;
 4a8:	5f 69 73 64 	addc.b	25715(r9),r15	;0x06473
 4ac:	73 74       	.word	0x7473;	????
 4ae:	00 5f       	add	r15,	r0	;
 4b0:	6c 6f       	addc.b	@r15,	r12	;
 4b2:	63 61       	.word	0x6163;	????
 4b4:	6c 74       	subc.b	@r4,	r12	;
 4b6:	69 6d       	addc.b	@r13,	r9	;
 4b8:	65 5f       	add.b	@r15,	r5	;
 4ba:	62 75       	subc.b	@r5,	r2	;
 4bc:	66 00 5f 63 	mova	r0,	&418655	; 0x6635f
 4c0:	6c 6f       	addc.b	@r15,	r12	;
 4c2:	73 65       	.word	0x6573;	????
 4c4:	00 5f       	add	r15,	r0	;
 4c6:	5f 73       	subc.b	#1,	r15	;r3 As==01
 4c8:	66 5f       	add.b	@r15,	r6	;
 4ca:	66 61       	addc.b	@r1,	r6	;
 4cc:	6b 65       	addc.b	@r5,	r11	;
 4ce:	5f 73       	subc.b	#1,	r15	;r3 As==01
 4d0:	74 64       	addc.b	@r4+,	r4	;
 4d2:	65 72       	subc.b	#4,	r5	;r2 As==10
 4d4:	72 00 5f 72 	mova	r0,	29279(r2); 0x0725f
 4d8:	34 38       	jl	$+106    	;abs 0x542
 4da:	00 5f       	add	r15,	r0	;
 4dc:	6d 62       	addc.b	#4,	r13	;r2 As==10
 4de:	74 6f       	addc.b	@r15+,	r4	;
 4e0:	77 63       	addc.b	#-1,	r7	;r3 As==11
 4e2:	5f 73       	subc.b	#1,	r15	;r3 As==01
 4e4:	74 61       	addc.b	@r1+,	r4	;
 4e6:	74 65       	addc.b	@r5+,	r4	;
 4e8:	00 5f       	add	r15,	r0	;
 4ea:	70 35       	jge	$+738    	;abs 0x7cc
 4ec:	73 00 6d 61 	mova	r0,	24941(r3); 0x0616d
 4f0:	69 6e       	addc.b	@r14,	r9	;
 4f2:	00 5f       	add	r15,	r0	;
 4f4:	5f 74 6d 5f 	subc.b	24429(r4),r15	;0x05f6d
 4f8:	6d 64       	addc.b	@r4,	r13	;
 4fa:	61 79       	subc.b	@r9,	r1	;
 4fc:	00 74       	subc	r4,	r0	;
 4fe:	74 79       	subc.b	@r9+,	r4	;
 500:	5f 70 75 74 	subc.b	0x7475,	r15	;PC rel. 0x7977
 504:	63 00 63 70 	mova	r0,	&225379	; 0x37063
 508:	75 74       	subc.b	@r4+,	r5	;
 50a:	5f 68 65 78 	addc.b	30821(r8),r15	;0x07865
 50e:	5f 62 79 74 	addc.b	&0x7479,r15	;0x7479
 512:	65 00 63 70 	mova	r0,	&356451	; 0x57063
 516:	75 74       	subc.b	@r4+,	r5	;
 518:	5f 68 65 78 	addc.b	30821(r8),r15	;0x07865
 51c:	5f 62 6c 6f 	addc.b	&0x6f6c,r15	;0x6f6c
 520:	63 6b       	.word	0x6b63;	????
 522:	00 5f       	add	r15,	r0	;
 524:	5f 62 75 69 	addc.b	&0x6975,r15	;0x6975
 528:	6c 74       	subc.b	@r4,	r12	;
 52a:	69 6e       	addc.b	@r14,	r9	;
 52c:	5f 76 61 5f 	subc.b	24417(r6),r15	;0x05f61
 530:	6c 69       	addc.b	@r9,	r12	;
 532:	73 74       	.word	0x7473;	????
 534:	00 63       	adc	r0		;
 536:	70 72       	subc.b	#8,	r0	;r2 As==11
 538:	69 6e       	addc.b	@r14,	r9	;
 53a:	74 66       	addc.b	@r6+,	r4	;
 53c:	2f 63       	addc	#2,	r15	;r3 As==10
 53e:	70 72       	subc.b	#8,	r0	;r2 As==11
 540:	69 6e       	addc.b	@r14,	r9	;
 542:	74 66       	addc.b	@r6+,	r4	;
 544:	2e 63       	addc	#2,	r14	;r3 As==10
 546:	00 63       	adc	r0		;
 548:	70 75       	subc.b	@r5+,	r0	;
 54a:	74 5f       	add.b	@r15+,	r4	;
 54c:	62 69       	addc.b	@r9,	r2	;
 54e:	6e 61       	addc.b	@r1,	r14	;
 550:	72 79       	subc.b	@r9+,	r2	;
 552:	5f 62 79 74 	addc.b	&0x7479,r15	;0x7479
 556:	65 00 63 70 	mova	r0,	&356451	; 0x57063
 55a:	75 74       	subc.b	@r4+,	r5	;
 55c:	5f 68 65 78 	addc.b	30821(r8),r15	;0x07865
 560:	5f 77 6f 72 	subc.b	29295(r7),r15	;0x0726f
 564:	64 00 2f 68 	mova	r0,	&288815	; 0x4682f
 568:	6f 6d       	addc.b	@r13,	r15	;
 56a:	65 2f       	jc	$-308    	;abs 0x436
 56c:	69 73       	subc.b	#2,	r9	;r3 As==10
 56e:	65 2f       	jc	$-308    	;abs 0x43a
 570:	54 43       	mov.b	#1,	r4	;r3 As==01
 572:	43 2f       	jc	$-376    	;abs 0x3fa
 574:	53 4d       	.word	0x4d53;	????
 576:	41 52       	add.b	r2,	r1	;
 578:	54 2f       	jc	$-342    	;abs 0x422
 57a:	73 6f       	.word	0x6f73;	????
 57c:	66 74       	subc.b	@r4,	r6	;
 57e:	77 61       	addc.b	@r1+,	r7	;
 580:	72 65       	addc.b	@r5+,	r2	;
 582:	2f 6c       	addc	@r12,	r15	;
 584:	69 62       	addc.b	#4,	r9	;r2 As==10
 586:	73 00 63 70 	mova	r0,	28771(r3); 0x07063
 58a:	75 74       	subc.b	@r4+,	r5	;
 58c:	5f 6e 69 62 	addc.b	25193(r14),r15	;0x06269
 590:	62 6c       	addc.b	@r12,	r2	;
 592:	65 00 63 70 	mova	r0,	&356451	; 0x57063
 596:	75 74       	subc.b	@r4+,	r5	;
 598:	5f 6e 69 62 	addc.b	25193(r14),r15	;0x06269
 59c:	62 6c       	addc.b	@r12,	r2	;
 59e:	65 5f       	add.b	@r15,	r5	;
 5a0:	62 6c       	addc.b	@r12,	r2	;
 5a2:	6f 63       	addc.b	#2,	r15	;r3 As==10
 5a4:	6b 00 63 70 	mova	r0,	&749667	; 0xb7063
 5a8:	72 69       	addc.b	@r9+,	r2	;
 5aa:	6e 74       	subc.b	@r4,	r14	;
 5ac:	66 00 63 70 	mova	r0,	&421987	; 0x67063
 5b0:	75 74       	subc.b	@r4+,	r5	;
 5b2:	5f 68 65 78 	addc.b	30821(r8),r15	;0x07865
 5b6:	5f 6c 6f 6e 	addc.b	28271(r12),r15	;0x06e6f
 5ba:	67 00 74 78 	mova	r0,	&489588	; 0x77874
 5be:	64 61       	addc.b	@r1,	r4	;
 5c0:	74 61       	addc.b	@r1+,	r4	;
 5c2:	00 63       	adc	r0		;
 5c4:	70 75       	subc.b	@r5+,	r0	;
 5c6:	74 5f       	add.b	@r15+,	r4	;
 5c8:	6e 75       	subc.b	@r5,	r14	;
 5ca:	6d 62       	addc.b	#4,	r13	;r2 As==10
 5cc:	65 72       	subc.b	#4,	r5	;r2 As==10
 5ce:	00 5f       	add	r15,	r0	;
 5d0:	5f 67 6e 75 	addc.b	30062(r7),r15	;0x0756e
 5d4:	63 5f       	.word	0x5f63;	????
 5d6:	76 61       	addc.b	@r1+,	r6	;
 5d8:	5f 6c 69 73 	addc.b	29545(r12),r15	;0x07369
 5dc:	74 00 73 6d 	mova	r0,	28019(r4); 0x06d73
 5e0:	61 72       	subc.b	#4,	r1	;r2 As==10
 5e2:	74 5f       	add.b	@r15+,	r4	;
 5e4:	6b 65       	addc.b	@r5,	r11	;
 5e6:	79 00 53 6d 	mova	r0,	27987(r9); 0x06d53
 5ea:	61 72       	subc.b	#4,	r1	;r2 As==10
 5ec:	74 49       	mov.b	@r9+,	r4	;
 5ee:	6e 70       	subc.b	@r0,	r14	;
 5f0:	75 74       	subc.b	@r4+,	r5	;
 5f2:	00 73       	sbc	r0		;
 5f4:	68 61       	addc.b	@r1,	r8	;
 5f6:	32 35       	jge	$+614    	;abs 0x85c
 5f8:	36 5f       	add	@r15+,	r6	;
 5fa:	66 6c       	addc.b	@r12,	r6	;
 5fc:	75 73       	subc.b	#-1,	r5	;r3 As==11
 5fe:	68 00 73 6d 	mova	r0,	&552307	; 0x86d73
 602:	61 72       	subc.b	#4,	r1	;r2 As==10
 604:	74 2f       	jc	$-278    	;abs 0x4ee
 606:	73 6d       	.word	0x6d73;	????
 608:	61 72       	subc.b	#4,	r1	;r2 As==10
 60a:	74 2e       	jc	$-790    	;abs 0x2f4
 60c:	63 00 73 6d 	mova	r0,	&224627	; 0x36d73
 610:	61 72       	subc.b	#4,	r1	;r2 As==10
 612:	74 5f       	add.b	@r15+,	r4	;
 614:	68 61       	addc.b	@r1,	r8	;
 616:	73 68       	.word	0x6873;	????
	...

Disassembly of section .debug_ranges:

00000000 <.debug_ranges>:
   0:	e0 fa 00 00 	and.b	@r10,	0x0000	; PC rel. 0x0002
   4:	56 fd 00 00 	and.b	0(r13),	r6	;
   8:	56 fd 00 00 	and.b	0(r13),	r6	;
   c:	9e fd 00 00 	and	0(r13),	0(r14)	;
  10:	00 00 
  12:	00 00       	beq			
  14:	00 00       	beq			
	...
